(lp0
(lp1
F0.01
aF0.01003
aF0.01007
aF0.0101
aF0.01013
aF0.01017
aF0.0102
aF0.01024
aF0.01027
aF0.01031
aF0.01034
aF0.01038
aF0.01041
aF0.01045
aF0.01049
aF0.01052
aF0.01056
aF0.0106
aF0.01063
aF0.01067
aF0.01071
aF0.01075
aF0.01079
aF0.01082
aF0.01086
aF0.0109
aF0.01094
aF0.01098
aF0.01102
aF0.01106
aF0.0111
aF0.01114
aF0.01119
aF0.01123
aF0.01127
aF0.01131
aF0.01135
aF0.0114
aF0.01144
aF0.01148
aF0.01153
aF0.01157
aF0.01162
aF0.01166
aF0.01171
aF0.01175
aF0.0118
aF0.01184
aF0.01189
aF0.01194
aF0.01198
aF0.01203
aF0.01208
aF0.01213
aF0.01218
aF0.01223
aF0.01228
aF0.01233
aF0.01238
aF0.01243
aF0.01248
aF0.01253
aF0.01258
aF0.01264
aF0.01269
aF0.01274
aF0.0128
aF0.01285
aF0.01291
aF0.01296
aF0.01302
aF0.01307
aF0.01313
aF0.01319
aF0.01325
aF0.0133
aF0.01336
aF0.01342
aF0.01348
aF0.01354
aF0.0136
aF0.01366
aF0.01373
aF0.01379
aF0.01385
aF0.01392
aF0.01398
aF0.01405
aF0.01411
aF0.01418
aF0.01424
aF0.01431
aF0.01438
aF0.01445
aF0.01452
aF0.01459
aF0.01466
aF0.01473
aF0.0148
aF0.01488
aF0.01495
aF0.01502
aF0.0151
aF0.01518
aF0.01525
aF0.01533
aF0.01541
aF0.01549
aF0.01557
aF0.01565
aF0.01573
aF0.01581
aF0.01589
aF0.01598
aF0.01606
aF0.01615
aF0.01624
aF0.01632
aF0.01641
aF0.0165
aF0.01659
aF0.01668
aF0.01678
aF0.01687
aF0.01697
aF0.01706
aF0.01716
aF0.01726
aF0.01736
aF0.01746
aF0.01756
aF0.01766
aF0.01776
aF0.01787
aF0.01798
aF0.01808
aF0.01819
aF0.0183
aF0.01841
aF0.01853
aF0.01864
aF0.01876
aF0.01887
aF0.01899
aF0.01911
aF0.01923
aF0.01936
aF0.01948
aF0.01961
aF0.01974
aF0.01987
aF0.02
aF0.02013
aF0.02027
aF0.0204
aF0.02054
aF0.02068
aF0.02083
aF0.02097
aF0.02112
aF0.02127
aF0.02142
aF0.02157
aF0.02172
aF0.02188
aF0.02204
aF0.0222
aF0.02237
aF0.02254
aF0.0227
aF0.02288
aF0.02305
aF0.02323
aF0.02341
aF0.02359
aF0.02378
aF0.02397
aF0.02416
aF0.02435
aF0.02455
aF0.02475
aF0.02496
aF0.02516
aF0.02538
aF0.02559
aF0.02581
aF0.02603
aF0.02626
aF0.02649
aF0.02672
aF0.02696
aF0.0272
aF0.02745
aF0.0277
aF0.02796
aF0.02822
aF0.02849
aF0.02876
aF0.02903
aF0.02932
aF0.0296
aF0.0299
aF0.0302
aF0.0305
aF0.03081
aF0.03113
aF0.03145
aF0.03178
aF0.03212
aF0.03247
aF0.03282
aF0.03318
aF0.03355
aF0.03393
aF0.03431
aF0.03471
aF0.03511
aF0.03552
aF0.03595
aF0.03638
aF0.03682
aF0.03728
aF0.03774
aF0.03822
aF0.03871
aF0.03921
aF0.03973
aF0.04026
aF0.0408
aF0.04136
aF0.04194
aF0.04253
aF0.04313
aF0.04376
aF0.0444
aF0.04506
aF0.04575
aF0.04645
aF0.04718
aF0.04792
aF0.0487
aF0.0495
aF0.05032
aF0.05117
aF0.05205
aF0.05297
aF0.05391
aF0.05489
aF0.05591
aF0.05696
aF0.05806
aF0.0592
aF0.06038
aF0.06161
aF0.06289
aF0.06423
aF0.06563
aF0.06709
aF0.06861
aF0.0702
aF0.07188
aF0.07363
aF0.07547
aF0.0774
aF0.07944
aF0.08158
aF0.08385
aF0.08624
aF0.08878
aF0.09147
aF0.09432
aF0.09736
aF0.10061
aF0.10407
aF0.10779
aF0.11178
aF0.11607
aF0.12071
aF0.12574
aF0.1312
aF0.13716
aF0.14368
aF0.15086
aF0.15879
aF0.1676
aF0.17745
aF0.18852
aF0.20108
aF0.21542
aF0.23196
aF0.25126
aF0.27406
aF0.30141
aF0.33483
aF0.37657
aF0.43022
aF0.50168
aF0.60161
aF0.75126
aF1.0
aa(lp2
F0.0
aF45.0
aF90.0
aa(lp3
I1
aI1
aI1
aa(lp4
(lp5
(lp6
I30222
aI30323
aI30424
aI30526
aI30629
aI30733
aI30837
aI30942
aI31048
aI31154
aI31261
aI31369
aI31478
aI31587
aI31698
aI31809
aI31920
aI32033
aI32146
aI32260
aI32375
aI32491
aI32607
aI32725
aI32843
aI32962
aI33082
aI33203
aI33325
aI33448
aI33571
aI33696
aI33821
aI33948
aI34075
aI34203
aI34333
aI34463
aI34594
aI34726
aI34859
aI34994
aI35129
aI35266
aI35403
aI35542
aI35681
aI35822
aI35964
aI36107
aI36251
aI36396
aI36543
aI36690
aI36839
aI36989
aI37140
aI37293
aI37447
aI37602
aI37758
aI37916
aI38075
aI38235
aI38397
aI38560
aI38725
aI38890
aI39058
aI39227
aI39397
aI39569
aI39742
aI39917
aI40093
aI40271
aI40450
aI40631
aI40814
aI40999
aI41185
aI41372
aI41562
aI41753
aI41946
aI42141
aI42338
aI42536
aI42737
aI42939
aI43143
aI43349
aI43558
aI43768
aI43980
aI44194
aI44411
aI44629
aI44850
aI45073
aI45298
aI45526
aI45756
aI45988
aI46222
aI46459
aI46698
aI46940
aI47185
aI47432
aI47681
aI47933
aI48188
aI48446
aI48706
aI48970
aI49236
aI49505
aI49777
aI50052
aI50330
aI50611
aI50896
aI51184
aI51475
aI51769
aI52067
aI52368
aI52673
aI52981
aI53293
aI53608
aI53928
aI54251
aI54579
aI54910
aI55245
aI55585
aI55928
aI56276
aI56629
aI56986
aI57347
aI57713
aI58084
aI58460
aI58840
aI59226
aI59617
aI60013
aI60414
aI60821
aI61233
aI61651
aI62075
aI62505
aI62940
aI63382
aI63831
aI64285
aI64747
aI65215
aI65690
aI66171
aI66661
aI67157
aI67661
aI68173
aI68693
aI69220
aI69756
aI70301
aI70854
aI71416
aI71987
aI72567
aI73157
aI73757
aI74366
aI74986
aI75617
aI76258
aI76911
aI77575
aI78251
aI78938
aI79638
aI80351
aI81077
aI81816
aI82570
aI83337
aI84119
aI84916
aI85729
aI86557
aI87402
aI88264
aI89143
aI90041
aI90957
aI91892
aI92847
aI93823
aI94820
aI95838
aI96879
aI97944
aI99032
aF100150.0
aF101290.0
aF102450.0
aF103650.0
aF104870.0
aF106120.0
aF107410.0
aF108720.0
aF110070.0
aF111460.0
aF112880.0
aF114340.0
aF115840.0
aF117380.0
aF118960.0
aF120590.0
aF122260.0
aF123990.0
aF125760.0
aF127590.0
aF129470.0
aF131410.0
aF133420.0
aF135480.0
aF137620.0
aF139830.0
aF142110.0
aF144470.0
aF146920.0
aF149450.0
aF152080.0
aF154800.0
aF157630.0
aF160580.0
aF163640.0
aF166830.0
aF170150.0
aF173610.0
aF177230.0
aF181020.0
aF184980.0
aF189130.0
aF193480.0
aF198060.0
aF202880.0
aF207950.0
aF213310.0
aF218980.0
aF224980.0
aF231360.0
aF238140.0
aF245370.0
aF253090.0
aF261360.0
aF270250.0
aF279820.0
aF290160.0
aF301360.0
aF313530.0
aF326790.0
aF341300.0
aF357200.0
aF374700.0
aF394000.0
aF415320.0
aF438910.0
aF465040.0
aF493950.0
aF525890.0
aF561060.0
aF599570.0
aF641370.0
aF686130.0
aF733020.0
aF780410.0
aF825360.0
aF863080.0
aF886570.0
aF887240.0
aF857210.0
aF793160.0
aF699220.0
aF586170.0
aF467230.0
aF354020.0
aF254720.0
aF174240.0
aF109250.0
aI53753
aI29437
aI10524
aa(lp7
I21370
aI21441
aI21513
aI21585
aI21658
aI21731
aI21805
aI21879
aI21954
aI22029
aI22105
aI22181
aI22258
aI22336
aI22414
aI22492
aI22571
aI22651
aI22731
aI22811
aI22893
aI22975
aI23057
aI23140
aI23224
aI23308
aI23393
aI23478
aI23564
aI23651
aI23738
aI23827
aI23915
aI24005
aI24095
aI24185
aI24277
aI24369
aI24462
aI24555
aI24649
aI24744
aI24840
aI24936
aI25034
aI25132
aI25230
aI25330
aI25430
aI25531
aI25633
aI25736
aI25839
aI25944
aI26049
aI26155
aI26262
aI26370
aI26479
aI26588
aI26699
aI26811
aI26923
aI27036
aI27151
aI27266
aI27382
aI27500
aI27618
aI27737
aI27858
aI27979
aI28102
aI28225
aI28350
aI28476
aI28603
aI28731
aI28860
aI28990
aI29122
aI29255
aI29389
aI29524
aI29660
aI29798
aI29937
aI30078
aI30219
aI30362
aI30507
aI30653
aI30800
aI30949
aI31099
aI31250
aI31403
aI31558
aI31714
aI31872
aI32031
aI32192
aI32354
aI32518
aI32684
aI32852
aI33021
aI33192
aI33365
aI33539
aI33716
aI33894
aI34074
aI34256
aI34441
aI34627
aI34815
aI35005
aI35198
aI35392
aI35589
aI35788
aI35989
aI36192
aI36398
aI36606
aI36817
aI37030
aI37245
aI37463
aI37684
aI37907
aI38133
aI38361
aI38593
aI38827
aI39064
aI39304
aI39547
aI39793
aI40043
aI40295
aI40551
aI40809
aI41072
aI41337
aI41606
aI41879
aI42155
aI42435
aI42719
aI43007
aI43298
aI43594
aI43894
aI44197
aI44506
aI44818
aI45135
aI45457
aI45783
aI46114
aI46450
aI46790
aI47136
aI47487
aI47844
aI48206
aI48573
aI48946
aI49325
aI49710
aI50101
aI50498
aI50902
aI51313
aI51730
aI52154
aI52585
aI53023
aI53469
aI53923
aI54384
aI54854
aI55331
aI55818
aI56313
aI56817
aI57330
aI57853
aI58386
aI58928
aI59481
aI60045
aI60619
aI61205
aI61803
aI62412
aI63034
aI63669
aI64316
aI64978
aI65653
aI66343
aI67048
aI67768
aI68504
aI69257
aI70027
aI70814
aI71620
aI72445
aI73289
aI74154
aI75040
aI75949
aI76880
aI77834
aI78814
aI79819
aI80851
aI81911
aI83000
aI84119
aI85270
aI86453
aI87671
aI88926
aI90218
aI91549
aI92922
aI94339
aI95801
aI97312
aI98872
aF100490.0
aF102160.0
aF103890.0
aF105680.0
aF107530.0
aF109460.0
aF111460.0
aF113550.0
aF115710.0
aF117960.0
aF120310.0
aF122760.0
aF125320.0
aF128000.0
aF130800.0
aF133730.0
aF136810.0
aF140050.0
aF143460.0
aF147040.0
aF150830.0
aF154840.0
aF159090.0
aF163590.0
aF168390.0
aF173500.0
aF178960.0
aF184810.0
aF191100.0
aF197860.0
aF205170.0
aF213090.0
aF221700.0
aF231080.0
aF241330.0
aF252580.0
aF264950.0
aF278600.0
aF293670.0
aF310360.0
aF328830.0
aF349270.0
aF371860.0
aF396730.0
aF423960.0
aF453520.0
aF485170.0
aF518320.0
aF551830.0
aF583620.0
aF610290.0
aF626900.0
aF627380.0
aF606140.0
aF560850.0
aF494420.0
aF414480.0
aF330380.0
aF250330.0
aF180110.0
aF123210.0
aI77249
aI38009
aI20815
aF7441.9
aa(lp8
F0.0003627
aF0.00036391
aF0.00036513
aF0.00036635
aF0.00036759
aF0.00036883
aF0.00037008
aF0.00037134
aF0.00037261
aF0.00037389
aF0.00037517
aF0.00037647
aF0.00037777
aF0.00037908
aF0.0003804
aF0.00038174
aF0.00038308
aF0.00038443
aF0.00038579
aF0.00038716
aF0.00038853
aF0.00038992
aF0.00039132
aF0.00039273
aF0.00039415
aF0.00039558
aF0.00039702
aF0.00039847
aF0.00039993
aF0.0004014
aF0.00040289
aF0.00040438
aF0.00040589
aF0.0004074
aF0.00040893
aF0.00041047
aF0.00041202
aF0.00041358
aF0.00041516
aF0.00041675
aF0.00041834
aF0.00041996
aF0.00042158
aF0.00042322
aF0.00042487
aF0.00042653
aF0.0004282
aF0.00042989
aF0.00043159
aF0.00043331
aF0.00043504
aF0.00043678
aF0.00043854
aF0.00044031
aF0.0004421
aF0.0004439
aF0.00044571
aF0.00044754
aF0.00044939
aF0.00045125
aF0.00045312
aF0.00045502
aF0.00045692
aF0.00045885
aF0.00046079
aF0.00046274
aF0.00046472
aF0.00046671
aF0.00046872
aF0.00047074
aF0.00047278
aF0.00047484
aF0.00047692
aF0.00047902
aF0.00048114
aF0.00048327
aF0.00048542
aF0.0004876
aF0.00048979
aF0.000492
aF0.00049423
aF0.00049649
aF0.00049876
aF0.00050106
aF0.00050337
aF0.00050571
aF0.00050807
aF0.00051045
aF0.00051285
aF0.00051528
aF0.00051773
aF0.00052021
aF0.0005227
aF0.00052522
aF0.00052777
aF0.00053034
aF0.00053294
aF0.00053556
aF0.00053821
aF0.00054088
aF0.00054359
aF0.00054631
aF0.00054907
aF0.00055185
aF0.00055467
aF0.00055751
aF0.00056038
aF0.00056328
aF0.00056621
aF0.00056918
aF0.00057217
aF0.0005752
aF0.00057825
aF0.00058134
aF0.00058447
aF0.00058763
aF0.00059082
aF0.00059405
aF0.00059731
aF0.00060061
aF0.00060395
aF0.00060732
aF0.00061073
aF0.00061418
aF0.00061767
aF0.0006212
aF0.00062477
aF0.00062839
aF0.00063204
aF0.00063574
aF0.00063948
aF0.00064327
aF0.0006471
aF0.00065098
aF0.0006549
aF0.00065888
aF0.0006629
aF0.00066697
aF0.00067109
aF0.00067527
aF0.00067949
aF0.00068377
aF0.00068811
aF0.0006925
aF0.00069695
aF0.00070145
aF0.00070602
aF0.00071064
aF0.00071533
aF0.00072008
aF0.00072489
aF0.00072977
aF0.00073471
aF0.00073972
aF0.00074481
aF0.00074996
aF0.00075518
aF0.00076048
aF0.00076586
aF0.00077131
aF0.00077684
aF0.00078245
aF0.00078815
aF0.00079393
aF0.00079979
aF0.00080575
aF0.00081179
aF0.00081792
aF0.00082415
aF0.00083048
aF0.00083691
aF0.00084343
aF0.00085006
aF0.0008568
aF0.00086365
aF0.0008706
aF0.00087768
aF0.00088486
aF0.00089217
aF0.00089961
aF0.00090716
aF0.00091485
aF0.00092267
aF0.00093063
aF0.00093873
aF0.00094697
aF0.00095536
aF0.00096391
aF0.00097261
aF0.00098147
aF0.00099049
aF0.00099969
aF0.0010091
aF0.0010186
aF0.0010283
aF0.0010383
aF0.0010484
aF0.0010587
aF0.0010693
aF0.00108
aF0.001091
aF0.0011022
aF0.0011136
aF0.0011253
aF0.0011373
aF0.0011495
aF0.0011619
aF0.0011747
aF0.0011877
aF0.0012011
aF0.0012147
aF0.0012287
aF0.001243
aF0.0012576
aF0.0012726
aF0.001288
aF0.0013038
aF0.0013199
aF0.0013365
aF0.0013535
aF0.001371
aF0.0013889
aF0.0014073
aF0.0014263
aF0.0014457
aF0.0014658
aF0.0014864
aF0.0015076
aF0.0015294
aF0.0015519
aF0.0015752
aF0.0015991
aF0.0016238
aF0.0016493
aF0.0016757
aF0.001703
aF0.0017312
aF0.0017604
aF0.0017907
aF0.001822
aF0.0018546
aF0.0018883
aF0.0019235
aF0.00196
aF0.001998
aF0.0020376
aF0.0020789
aF0.002122
aF0.0021671
aF0.0022142
aF0.0022636
aF0.0023154
aF0.0023698
aF0.0024271
aF0.0024874
aF0.002551
aF0.0026182
aF0.0026894
aF0.0027649
aF0.0028452
aF0.0029307
aF0.003022
aF0.0031196
aF0.0032244
aF0.0033371
aF0.0034586
aF0.00359
aF0.0037326
aF0.0038877
aF0.004057
aF0.0042422
aF0.0044453
aF0.0046687
aF0.0049148
aF0.0051862
aF0.0054858
aF0.0058162
aF0.0061802
aF0.00658
aF0.0070173
aF0.0074929
aF0.0080056
aF0.0085515
aF0.0091215
aF0.0096985
aF0.010252
aF0.010729
aF0.011048
aF0.011088
aF0.010695
aF0.0097275
aF0.0081416
aF0.0061035
aF0.0041772
aF0.0047938
aF0.007973
aF0.0021662
aF0.0015529
aF0.00068139
aF0.00021293
aaa(lp9
(lp10
F0.0
aF0.0
aF0.0
aF0.0
aF0.0
aF0.0
aF0.0
aF0.0
aF0.0
aF0.0
aF0.0
aF0.0
aF0.0
aF0.0
aF0.0
aF0.0
aF0.0
aF0.0
aF0.0
aF0.0
aF0.0
aF0.0
aF0.0
aF0.0
aF0.0
aF0.0
aF0.0
aF0.0
aF0.0
aF0.0
aF0.0
aF0.0
aF0.0
aF0.0
aF0.0
aF0.0
aF0.0
aF0.0
aF0.0
aF0.0
aF0.0
aF0.0
aF0.0
aF0.0
aF0.0
aF0.0
aF0.0
aF0.0
aF0.0
aF0.0
aF0.0
aF0.0
aF0.0
aF0.0
aF0.0
aF0.0
aF0.0
aF0.0
aF0.0
aF0.0
aF0.0
aF0.0
aF0.0
aF0.0
aF0.0
aF0.0
aF0.0
aF0.0
aF0.0
aF0.0
aF0.0
aF0.0
aF0.0
aF0.0
aF0.0
aF0.0
aF0.0
aF0.0
aF0.0
aF0.0
aF0.0
aF0.0
aF0.0
aF0.0
aF0.0
aF0.0
aF0.0
aF0.0
aF0.0
aF0.0
aF0.0
aF0.0
aF0.0
aF0.0
aF0.0
aF0.0
aF0.0
aF0.0
aF0.0
aF0.0
aF0.0
aF0.0
aF0.0
aF0.0
aF0.0
aF0.0
aF0.0
aF0.0
aF0.0
aF0.0
aF0.0
aF0.0
aF0.0
aF0.0
aF0.0
aF0.0
aF0.0
aF0.0
aF0.0
aF0.0
aF0.0
aF0.0
aF0.0
aF0.0
aF0.0
aF0.0
aF0.0
aF0.0
aF0.0
aF0.0
aF0.0
aF0.0
aF0.0
aF0.0
aF0.0
aF0.0
aF0.0
aF0.0
aF0.0
aF0.0
aF0.0
aF0.0
aF0.0
aF0.0
aF0.0
aF0.0
aF0.0
aF0.0
aF0.0
aF0.0
aF0.0
aF0.0
aF0.0
aF0.0
aF0.0
aF0.0
aF0.0
aF0.0
aF0.0
aF0.0
aF0.0
aF0.0
aF0.0
aF0.0
aF0.0
aF0.0
aF0.0
aF0.0
aF0.0
aF0.0
aF0.0
aF0.0
aF0.0
aF0.0
aF0.0
aF0.0
aF0.0
aF0.0
aF0.0
aF0.0
aF0.0
aF0.0
aF0.0
aF0.0
aF0.0
aF0.0
aF0.0
aF0.0
aF0.0
aF0.0
aF0.0
aF0.0
aF0.0
aF0.0
aF0.0
aF0.0
aF0.0
aF0.0
aF0.0
aF0.0
aF0.0
aF0.0
aF0.0
aF0.0
aF0.0
aF0.0
aF0.0
aF0.0
aF0.0
aF0.0
aF0.0
aF0.0
aF0.0
aF0.0
aF0.0
aF0.0
aF0.0
aF0.0
aF0.0
aF0.0
aF0.0
aF0.0
aF0.0
aF0.0
aF0.0
aF0.0
aF0.0
aF0.0
aF0.0
aF0.0
aF0.0
aF0.0
aF0.0
aF0.0
aF0.0
aF0.0
aF0.0
aF0.0
aF0.0
aF0.0
aF0.0
aF0.0
aF0.0
aF0.0
aF0.0
aF0.0
aF0.0
aF0.0
aF0.0
aF0.0
aF0.0
aF0.0
aF0.0
aF0.0
aF0.0
aF0.0
aF0.0
aF0.0
aF0.0
aF0.0
aF0.0
aF0.0
aF0.0
aF0.0
aF0.0
aF0.0
aF0.0
aF0.0
aF0.0
aF0.0
aF0.0
aF0.0
aF0.0
aF0.0
aF0.0
aF0.0
aF0.0
aF0.0
aF0.0
aF0.0
aF0.0
aF0.0
aF0.0
aF0.0
aF0.0
aF0.0
aF0.0
aF0.0
aF0.0
aF0.0
aF0.0
aF0.0
aF0.0
aF0.0
aF0.0
aF0.0
aF0.0
aF0.0
aF0.0
aF0.0
aa(lp11
I21370
aI21441
aI21513
aI21585
aI21658
aI21731
aI21805
aI21879
aI21954
aI22029
aI22105
aI22181
aI22258
aI22336
aI22414
aI22492
aI22571
aI22651
aI22731
aI22811
aI22893
aI22975
aI23057
aI23140
aI23224
aI23308
aI23393
aI23478
aI23564
aI23651
aI23738
aI23827
aI23915
aI24005
aI24095
aI24185
aI24277
aI24369
aI24462
aI24555
aI24649
aI24744
aI24840
aI24936
aI25034
aI25132
aI25230
aI25330
aI25430
aI25531
aI25633
aI25736
aI25839
aI25944
aI26049
aI26155
aI26262
aI26370
aI26479
aI26589
aI26699
aI26811
aI26923
aI27036
aI27151
aI27266
aI27382
aI27500
aI27618
aI27737
aI27858
aI27979
aI28102
aI28225
aI28350
aI28476
aI28603
aI28731
aI28860
aI28990
aI29122
aI29255
aI29389
aI29524
aI29660
aI29798
aI29937
aI30078
aI30219
aI30362
aI30507
aI30653
aI30800
aI30949
aI31099
aI31250
aI31403
aI31558
aI31714
aI31872
aI32031
aI32192
aI32354
aI32518
aI32684
aI32852
aI33021
aI33192
aI33365
aI33539
aI33716
aI33894
aI34074
aI34256
aI34441
aI34627
aI34815
aI35005
aI35198
aI35392
aI35589
aI35788
aI35989
aI36192
aI36398
aI36606
aI36817
aI37030
aI37245
aI37463
aI37684
aI37907
aI38133
aI38361
aI38593
aI38827
aI39064
aI39304
aI39547
aI39793
aI40043
aI40295
aI40551
aI40809
aI41072
aI41337
aI41606
aI41879
aI42155
aI42435
aI42719
aI43007
aI43298
aI43594
aI43894
aI44197
aI44506
aI44818
aI45135
aI45457
aI45783
aI46114
aI46450
aI46790
aI47136
aI47487
aI47844
aI48206
aI48573
aI48946
aI49325
aI49710
aI50101
aI50498
aI50902
aI51313
aI51730
aI52154
aI52585
aI53023
aI53469
aI53923
aI54384
aI54854
aI55331
aI55818
aI56313
aI56817
aI57330
aI57853
aI58386
aI58928
aI59481
aI60045
aI60619
aI61205
aI61803
aI62412
aI63034
aI63669
aI64316
aI64978
aI65653
aI66343
aI67048
aI67768
aI68504
aI69257
aI70027
aI70814
aI71620
aI72445
aI73289
aI74154
aI75040
aI75949
aI76880
aI77834
aI78814
aI79819
aI80851
aI81911
aI83000
aI84119
aI85270
aI86453
aI87671
aI88926
aI90218
aI91549
aI92922
aI94339
aI95801
aI97312
aI98872
aF100490.0
aF102160.0
aF103890.0
aF105680.0
aF107530.0
aF109460.0
aF111460.0
aF113550.0
aF115710.0
aF117960.0
aF120310.0
aF122760.0
aF125320.0
aF128000.0
aF130800.0
aF133730.0
aF136810.0
aF140050.0
aF143460.0
aF147040.0
aF150830.0
aF154840.0
aF159090.0
aF163590.0
aF168390.0
aF173500.0
aF178960.0
aF184810.0
aF191100.0
aF197860.0
aF205170.0
aF213090.0
aF221700.0
aF231080.0
aF241330.0
aF252580.0
aF264950.0
aF278600.0
aF293670.0
aF310360.0
aF328830.0
aF349270.0
aF371860.0
aF396730.0
aF423960.0
aF453520.0
aF485170.0
aF518320.0
aF551830.0
aF583620.0
aF610290.0
aF626900.0
aF627380.0
aF606140.0
aF560850.0
aF494420.0
aF414480.0
aF330380.0
aF250330.0
aF180110.0
aF123210.0
aI77249
aI38009
aI20815
aF7441.9
aa(lp12
I30222
aI30323
aI30424
aI30526
aI30629
aI30733
aI30837
aI30942
aI31048
aI31154
aI31261
aI31369
aI31478
aI31587
aI31698
aI31809
aI31920
aI32033
aI32146
aI32260
aI32375
aI32491
aI32607
aI32725
aI32843
aI32962
aI33082
aI33203
aI33325
aI33448
aI33571
aI33696
aI33821
aI33948
aI34075
aI34203
aI34333
aI34463
aI34594
aI34726
aI34859
aI34994
aI35129
aI35266
aI35403
aI35542
aI35681
aI35822
aI35964
aI36107
aI36251
aI36396
aI36543
aI36690
aI36839
aI36989
aI37140
aI37293
aI37447
aI37602
aI37758
aI37916
aI38075
aI38235
aI38397
aI38560
aI38725
aI38890
aI39058
aI39227
aI39397
aI39569
aI39742
aI39917
aI40093
aI40271
aI40450
aI40631
aI40814
aI40999
aI41185
aI41372
aI41562
aI41753
aI41946
aI42141
aI42338
aI42536
aI42737
aI42939
aI43143
aI43349
aI43558
aI43768
aI43980
aI44194
aI44411
aI44629
aI44850
aI45073
aI45298
aI45526
aI45756
aI45988
aI46222
aI46459
aI46698
aI46940
aI47185
aI47432
aI47681
aI47933
aI48188
aI48446
aI48706
aI48970
aI49236
aI49505
aI49777
aI50052
aI50330
aI50611
aI50896
aI51184
aI51475
aI51769
aI52067
aI52368
aI52673
aI52981
aI53293
aI53608
aI53928
aI54251
aI54579
aI54910
aI55245
aI55585
aI55928
aI56276
aI56629
aI56986
aI57347
aI57713
aI58084
aI58460
aI58840
aI59226
aI59617
aI60013
aI60414
aI60821
aI61233
aI61651
aI62075
aI62505
aI62940
aI63382
aI63831
aI64285
aI64747
aI65215
aI65690
aI66171
aI66661
aI67157
aI67661
aI68173
aI68693
aI69220
aI69756
aI70301
aI70854
aI71416
aI71987
aI72567
aI73157
aI73757
aI74366
aI74986
aI75617
aI76258
aI76911
aI77575
aI78251
aI78938
aI79638
aI80351
aI81077
aI81816
aI82570
aI83337
aI84119
aI84916
aI85729
aI86557
aI87402
aI88264
aI89143
aI90041
aI90957
aI91892
aI92847
aI93823
aI94820
aI95838
aI96879
aI97944
aI99032
aF100150.0
aF101290.0
aF102450.0
aF103650.0
aF104870.0
aF106120.0
aF107410.0
aF108720.0
aF110070.0
aF111460.0
aF112880.0
aF114340.0
aF115840.0
aF117380.0
aF118960.0
aF120590.0
aF122260.0
aF123990.0
aF125760.0
aF127590.0
aF129470.0
aF131410.0
aF133420.0
aF135480.0
aF137620.0
aF139830.0
aF142110.0
aF144470.0
aF146920.0
aF149450.0
aF152080.0
aF154800.0
aF157630.0
aF160580.0
aF163640.0
aF166830.0
aF170150.0
aF173610.0
aF177230.0
aF181020.0
aF184980.0
aF189130.0
aF193480.0
aF198060.0
aF202880.0
aF207950.0
aF213310.0
aF218980.0
aF224980.0
aF231360.0
aF238140.0
aF245370.0
aF253090.0
aF261360.0
aF270250.0
aF279820.0
aF290160.0
aF301360.0
aF313530.0
aF326790.0
aF341300.0
aF357200.0
aF374700.0
aF394000.0
aF415320.0
aF438910.0
aF465040.0
aF493950.0
aF525890.0
aF561060.0
aF599570.0
aF641370.0
aF686130.0
aF733020.0
aF780410.0
aF825360.0
aF863080.0
aF886570.0
aF887240.0
aF857210.0
aF793160.0
aF699220.0
aF586170.0
aF467230.0
aF354020.0
aF254720.0
aF174240.0
aF109250.0
aI53753
aI29437
aI10524
aaa(lp13
(lp14
F694600.0
aF694580.0
aF694550.0
aF694530.0
aF694510.0
aF694490.0
aF694470.0
aF694450.0
aF694420.0
aF694400.0
aF694380.0
aF694350.0
aF694330.0
aF694310.0
aF694280.0
aF694260.0
aF694230.0
aF694210.0
aF694180.0
aF694160.0
aF694130.0
aF694110.0
aF694080.0
aF694060.0
aF694030.0
aF694000.0
aF693980.0
aF693950.0
aF693920.0
aF693890.0
aF693860.0
aF693840.0
aF693810.0
aF693780.0
aF693750.0
aF693720.0
aF693690.0
aF693660.0
aF693630.0
aF693590.0
aF693560.0
aF693530.0
aF693500.0
aF693460.0
aF693430.0
aF693400.0
aF693360.0
aF693330.0
aF693290.0
aF693260.0
aF693220.0
aF693190.0
aF693150.0
aF693110.0
aF693080.0
aF693040.0
aF693000.0
aF692960.0
aF692920.0
aF692880.0
aF692840.0
aF692800.0
aF692760.0
aF692720.0
aF692680.0
aF692640.0
aF692590.0
aF692550.0
aF692500.0
aF692460.0
aF692410.0
aF692370.0
aF692320.0
aF692270.0
aF692230.0
aF692180.0
aF692130.0
aF692080.0
aF692030.0
aF691980.0
aF691920.0
aF691870.0
aF691820.0
aF691760.0
aF691710.0
aF691650.0
aF691600.0
aF691540.0
aF691480.0
aF691420.0
aF691370.0
aF691310.0
aF691240.0
aF691180.0
aF691120.0
aF691060.0
aF690990.0
aF690920.0
aF690860.0
aF690790.0
aF690720.0
aF690650.0
aF690580.0
aF690510.0
aF690440.0
aF690360.0
aF690290.0
aF690210.0
aF690130.0
aF690060.0
aF689980.0
aF689890.0
aF689810.0
aF689730.0
aF689640.0
aF689560.0
aF689470.0
aF689380.0
aF689290.0
aF689200.0
aF689100.0
aF689010.0
aF688910.0
aF688810.0
aF688710.0
aF688610.0
aF688510.0
aF688400.0
aF688300.0
aF688190.0
aF688080.0
aF687970.0
aF687850.0
aF687740.0
aF687620.0
aF687500.0
aF687370.0
aF687250.0
aF687120.0
aF686990.0
aF686860.0
aF686720.0
aF686590.0
aF686450.0
aF686310.0
aF686160.0
aF686010.0
aF685860.0
aF685710.0
aF685550.0
aF685390.0
aF685230.0
aF685060.0
aF684890.0
aF684720.0
aF684550.0
aF684370.0
aF684180.0
aF684000.0
aF683800.0
aF683610.0
aF683410.0
aF683210.0
aF683000.0
aF682790.0
aF682570.0
aF682350.0
aF682120.0
aF681890.0
aF681650.0
aF681410.0
aF681160.0
aF680910.0
aF680650.0
aF680380.0
aF680110.0
aF679840.0
aF679550.0
aF679260.0
aF678960.0
aF678660.0
aF678340.0
aF678020.0
aF677690.0
aF677350.0
aF677010.0
aF676650.0
aF676290.0
aF675920.0
aF675530.0
aF675140.0
aF674740.0
aF674320.0
aF673890.0
aF673460.0
aF673010.0
aF672540.0
aF672070.0
aF671580.0
aF671070.0
aF670560.0
aF670020.0
aF669470.0
aF668910.0
aF668320.0
aF667720.0
aF667100.0
aF666470.0
aF665810.0
aF665130.0
aF664430.0
aF663700.0
aF662950.0
aF662180.0
aF661380.0
aF660550.0
aF659700.0
aF658810.0
aF657890.0
aF656950.0
aF655960.0
aF654940.0
aF653890.0
aF652790.0
aF651650.0
aF650470.0
aF649240.0
aF647970.0
aF646640.0
aF645260.0
aF643820.0
aF642330.0
aF640770.0
aF639140.0
aF637450.0
aF635680.0
aF633830.0
aF631900.0
aF629880.0
aF627770.0
aF625560.0
aF623240.0
aF620810.0
aF618260.0
aF615580.0
aF612760.0
aF609800.0
aF606690.0
aF603410.0
aF599950.0
aF596310.0
aF592460.0
aF588390.0
aF584080.0
aF579520.0
aF574690.0
aF569570.0
aF564130.0
aF558360.0
aF552210.0
aF545670.0
aF538710.0
aF531280.0
aF523360.0
aF514890.0
aF505860.0
aF496190.0
aF485860.0
aF474820.0
aF463010.0
aF450380.0
aF436900.0
aF422510.0
aF407160.0
aF390830.0
aF373470.0
aF355050.0
aF335550.0
aF314940.0
aF293230.0
aF270410.0
aF246540.0
aF221700.0
aF196050.0
aF169860.0
aF143480.0
aF117450.0
aI92419
aI69160
aI48511
aI31260
aI17987
aF8892.2
aF3784.4
aF427.64
aF23.752
aF91.609
aF64.908
aF42.347
aF19.246
aa(lp15
F694600.0
aF694580.0
aF694550.0
aF694530.0
aF694510.0
aF694490.0
aF694470.0
aF694450.0
aF694420.0
aF694400.0
aF694380.0
aF694350.0
aF694330.0
aF694310.0
aF694280.0
aF694260.0
aF694230.0
aF694210.0
aF694180.0
aF694160.0
aF694130.0
aF694110.0
aF694080.0
aF694060.0
aF694030.0
aF694000.0
aF693980.0
aF693950.0
aF693920.0
aF693890.0
aF693860.0
aF693840.0
aF693810.0
aF693780.0
aF693750.0
aF693720.0
aF693690.0
aF693660.0
aF693630.0
aF693590.0
aF693560.0
aF693530.0
aF693500.0
aF693460.0
aF693430.0
aF693400.0
aF693360.0
aF693330.0
aF693290.0
aF693260.0
aF693220.0
aF693190.0
aF693150.0
aF693120.0
aF693080.0
aF693040.0
aF693000.0
aF692960.0
aF692920.0
aF692880.0
aF692840.0
aF692800.0
aF692760.0
aF692720.0
aF692680.0
aF692640.0
aF692590.0
aF692550.0
aF692500.0
aF692460.0
aF692410.0
aF692370.0
aF692320.0
aF692270.0
aF692230.0
aF692180.0
aF692130.0
aF692080.0
aF692030.0
aF691980.0
aF691920.0
aF691870.0
aF691820.0
aF691760.0
aF691710.0
aF691650.0
aF691600.0
aF691540.0
aF691480.0
aF691420.0
aF691370.0
aF691300.0
aF691240.0
aF691180.0
aF691120.0
aF691060.0
aF690990.0
aF690920.0
aF690860.0
aF690790.0
aF690720.0
aF690650.0
aF690580.0
aF690510.0
aF690440.0
aF690360.0
aF690290.0
aF690210.0
aF690130.0
aF690060.0
aF689980.0
aF689890.0
aF689810.0
aF689730.0
aF689640.0
aF689560.0
aF689470.0
aF689380.0
aF689290.0
aF689200.0
aF689100.0
aF689010.0
aF688910.0
aF688810.0
aF688710.0
aF688610.0
aF688510.0
aF688400.0
aF688300.0
aF688190.0
aF688080.0
aF687970.0
aF687850.0
aF687730.0
aF687620.0
aF687500.0
aF687370.0
aF687250.0
aF687120.0
aF686990.0
aF686860.0
aF686720.0
aF686590.0
aF686450.0
aF686310.0
aF686160.0
aF686010.0
aF685860.0
aF685710.0
aF685550.0
aF685390.0
aF685230.0
aF685060.0
aF684890.0
aF684720.0
aF684550.0
aF684370.0
aF684180.0
aF684000.0
aF683800.0
aF683610.0
aF683410.0
aF683210.0
aF683000.0
aF682790.0
aF682570.0
aF682350.0
aF682120.0
aF681890.0
aF681650.0
aF681410.0
aF681160.0
aF680910.0
aF680650.0
aF680380.0
aF680110.0
aF679840.0
aF679550.0
aF679260.0
aF678960.0
aF678660.0
aF678340.0
aF678020.0
aF677690.0
aF677350.0
aF677010.0
aF676650.0
aF676290.0
aF675920.0
aF675530.0
aF675140.0
aF674740.0
aF674320.0
aF673890.0
aF673460.0
aF673010.0
aF672540.0
aF672070.0
aF671580.0
aF671070.0
aF670560.0
aF670020.0
aF669470.0
aF668910.0
aF668320.0
aF667720.0
aF667100.0
aF666470.0
aF665810.0
aF665130.0
aF664430.0
aF663700.0
aF662950.0
aF662180.0
aF661380.0
aF660550.0
aF659700.0
aF658810.0
aF657890.0
aF656950.0
aF655960.0
aF654940.0
aF653890.0
aF652790.0
aF651650.0
aF650470.0
aF649240.0
aF647970.0
aF646640.0
aF645260.0
aF643820.0
aF642330.0
aF640770.0
aF639140.0
aF637450.0
aF635680.0
aF633830.0
aF631900.0
aF629880.0
aF627770.0
aF625560.0
aF623240.0
aF620810.0
aF618260.0
aF615580.0
aF612760.0
aF609800.0
aF606690.0
aF603410.0
aF599950.0
aF596310.0
aF592460.0
aF588390.0
aF584080.0
aF579520.0
aF574690.0
aF569570.0
aF564130.0
aF558360.0
aF552210.0
aF545670.0
aF538710.0
aF531280.0
aF523360.0
aF514890.0
aF505860.0
aF496190.0
aF485860.0
aF474820.0
aF463010.0
aF450380.0
aF436900.0
aF422510.0
aF407160.0
aF390830.0
aF373470.0
aF355050.0
aF335550.0
aF314940.0
aF293230.0
aF270410.0
aF246540.0
aF221700.0
aF196050.0
aF169860.0
aF143480.0
aF117450.0
aI92419
aI69160
aI48511
aI31260
aI17987
aF8892.2
aF3784.4
aF427.62
aF23.798
aF91.601
aF64.907
aF42.329
aF19.249
aa(lp16
F694600.0
aF694580.0
aF694550.0
aF694530.0
aF694510.0
aF694490.0
aF694470.0
aF694450.0
aF694420.0
aF694400.0
aF694380.0
aF694350.0
aF694330.0
aF694310.0
aF694280.0
aF694260.0
aF694230.0
aF694210.0
aF694180.0
aF694160.0
aF694130.0
aF694110.0
aF694080.0
aF694060.0
aF694030.0
aF694000.0
aF693980.0
aF693950.0
aF693920.0
aF693890.0
aF693860.0
aF693840.0
aF693810.0
aF693780.0
aF693750.0
aF693720.0
aF693690.0
aF693660.0
aF693630.0
aF693590.0
aF693560.0
aF693530.0
aF693500.0
aF693460.0
aF693430.0
aF693400.0
aF693360.0
aF693330.0
aF693290.0
aF693260.0
aF693220.0
aF693190.0
aF693150.0
aF693120.0
aF693080.0
aF693040.0
aF693000.0
aF692960.0
aF692920.0
aF692880.0
aF692840.0
aF692800.0
aF692760.0
aF692720.0
aF692680.0
aF692640.0
aF692590.0
aF692550.0
aF692500.0
aF692460.0
aF692410.0
aF692370.0
aF692320.0
aF692270.0
aF692230.0
aF692180.0
aF692130.0
aF692080.0
aF692030.0
aF691980.0
aF691920.0
aF691870.0
aF691820.0
aF691760.0
aF691710.0
aF691650.0
aF691600.0
aF691540.0
aF691480.0
aF691420.0
aF691370.0
aF691310.0
aF691240.0
aF691180.0
aF691120.0
aF691060.0
aF690990.0
aF690920.0
aF690860.0
aF690790.0
aF690720.0
aF690650.0
aF690580.0
aF690510.0
aF690440.0
aF690360.0
aF690290.0
aF690210.0
aF690130.0
aF690060.0
aF689980.0
aF689890.0
aF689810.0
aF689730.0
aF689640.0
aF689560.0
aF689470.0
aF689380.0
aF689290.0
aF689200.0
aF689100.0
aF689010.0
aF688910.0
aF688810.0
aF688710.0
aF688610.0
aF688510.0
aF688400.0
aF688300.0
aF688190.0
aF688080.0
aF687970.0
aF687850.0
aF687740.0
aF687620.0
aF687500.0
aF687370.0
aF687250.0
aF687120.0
aF686990.0
aF686860.0
aF686720.0
aF686590.0
aF686450.0
aF686310.0
aF686160.0
aF686010.0
aF685860.0
aF685710.0
aF685550.0
aF685390.0
aF685230.0
aF685060.0
aF684890.0
aF684720.0
aF684550.0
aF684370.0
aF684180.0
aF684000.0
aF683800.0
aF683610.0
aF683410.0
aF683210.0
aF683000.0
aF682790.0
aF682570.0
aF682350.0
aF682120.0
aF681890.0
aF681650.0
aF681410.0
aF681160.0
aF680910.0
aF680650.0
aF680380.0
aF680110.0
aF679840.0
aF679550.0
aF679260.0
aF678960.0
aF678660.0
aF678340.0
aF678020.0
aF677690.0
aF677350.0
aF677010.0
aF676650.0
aF676290.0
aF675920.0
aF675530.0
aF675140.0
aF674740.0
aF674320.0
aF673890.0
aF673460.0
aF673010.0
aF672540.0
aF672070.0
aF671580.0
aF671080.0
aF670560.0
aF670020.0
aF669470.0
aF668910.0
aF668320.0
aF667720.0
aF667100.0
aF666470.0
aF665810.0
aF665130.0
aF664420.0
aF663700.0
aF662950.0
aF662180.0
aF661380.0
aF660550.0
aF659700.0
aF658810.0
aF657890.0
aF656950.0
aF655960.0
aF654940.0
aF653890.0
aF652790.0
aF651650.0
aF650470.0
aF649240.0
aF647970.0
aF646640.0
aF645260.0
aF643820.0
aF642330.0
aF640770.0
aF639140.0
aF637450.0
aF635680.0
aF633830.0
aF631900.0
aF629880.0
aF627770.0
aF625560.0
aF623240.0
aF620810.0
aF618260.0
aF615580.0
aF612760.0
aF609800.0
aF606690.0
aF603410.0
aF599950.0
aF596310.0
aF592460.0
aF588390.0
aF584080.0
aF579520.0
aF574690.0
aF569570.0
aF564130.0
aF558360.0
aF552210.0
aF545670.0
aF538710.0
aF531280.0
aF523360.0
aF514890.0
aF505860.0
aF496190.0
aF485860.0
aF474820.0
aF463010.0
aF450380.0
aF436900.0
aF422510.0
aF407160.0
aF390830.0
aF373470.0
aF355050.0
aF335550.0
aF314940.0
aF293230.0
aF270410.0
aF246540.0
aF221700.0
aF196050.0
aF169860.0
aF143480.0
aF117450.0
aI92419
aI69160
aI48511
aI31260
aI17987
aF8892.1
aF3784.4
aF427.6
aF23.796
aF91.626
aF64.909
aF42.347
aF19.25
aaaa.