(lp0
(lp1
F0.01
aF0.01003
aF0.01007
aF0.0101
aF0.01013
aF0.01017
aF0.0102
aF0.01024
aF0.01027
aF0.01031
aF0.01034
aF0.01038
aF0.01041
aF0.01045
aF0.01049
aF0.01052
aF0.01056
aF0.0106
aF0.01063
aF0.01067
aF0.01071
aF0.01075
aF0.01079
aF0.01082
aF0.01086
aF0.0109
aF0.01094
aF0.01098
aF0.01102
aF0.01106
aF0.0111
aF0.01114
aF0.01119
aF0.01123
aF0.01127
aF0.01131
aF0.01135
aF0.0114
aF0.01144
aF0.01148
aF0.01153
aF0.01157
aF0.01162
aF0.01166
aF0.01171
aF0.01175
aF0.0118
aF0.01184
aF0.01189
aF0.01194
aF0.01198
aF0.01203
aF0.01208
aF0.01213
aF0.01218
aF0.01223
aF0.01228
aF0.01233
aF0.01238
aF0.01243
aF0.01248
aF0.01253
aF0.01258
aF0.01264
aF0.01269
aF0.01274
aF0.0128
aF0.01285
aF0.01291
aF0.01296
aF0.01302
aF0.01307
aF0.01313
aF0.01319
aF0.01325
aF0.0133
aF0.01336
aF0.01342
aF0.01348
aF0.01354
aF0.0136
aF0.01366
aF0.01373
aF0.01379
aF0.01385
aF0.01392
aF0.01398
aF0.01405
aF0.01411
aF0.01418
aF0.01424
aF0.01431
aF0.01438
aF0.01445
aF0.01452
aF0.01459
aF0.01466
aF0.01473
aF0.0148
aF0.01488
aF0.01495
aF0.01502
aF0.0151
aF0.01518
aF0.01525
aF0.01533
aF0.01541
aF0.01549
aF0.01557
aF0.01565
aF0.01573
aF0.01581
aF0.01589
aF0.01598
aF0.01606
aF0.01615
aF0.01624
aF0.01632
aF0.01641
aF0.0165
aF0.01659
aF0.01668
aF0.01678
aF0.01687
aF0.01697
aF0.01706
aF0.01716
aF0.01726
aF0.01736
aF0.01746
aF0.01756
aF0.01766
aF0.01776
aF0.01787
aF0.01798
aF0.01808
aF0.01819
aF0.0183
aF0.01841
aF0.01853
aF0.01864
aF0.01876
aF0.01887
aF0.01899
aF0.01911
aF0.01923
aF0.01936
aF0.01948
aF0.01961
aF0.01974
aF0.01987
aF0.02
aF0.02013
aF0.02027
aF0.0204
aF0.02054
aF0.02068
aF0.02083
aF0.02097
aF0.02112
aF0.02127
aF0.02142
aF0.02157
aF0.02172
aF0.02188
aF0.02204
aF0.0222
aF0.02237
aF0.02254
aF0.0227
aF0.02288
aF0.02305
aF0.02323
aF0.02341
aF0.02359
aF0.02378
aF0.02397
aF0.02416
aF0.02435
aF0.02455
aF0.02475
aF0.02496
aF0.02516
aF0.02538
aF0.02559
aF0.02581
aF0.02603
aF0.02626
aF0.02649
aF0.02672
aF0.02696
aF0.0272
aF0.02745
aF0.0277
aF0.02796
aF0.02822
aF0.02849
aF0.02876
aF0.02903
aF0.02932
aF0.0296
aF0.0299
aF0.0302
aF0.0305
aF0.03081
aF0.03113
aF0.03145
aF0.03178
aF0.03212
aF0.03247
aF0.03282
aF0.03318
aF0.03355
aF0.03393
aF0.03431
aF0.03471
aF0.03511
aF0.03552
aF0.03595
aF0.03638
aF0.03682
aF0.03728
aF0.03774
aF0.03822
aF0.03871
aF0.03921
aF0.03973
aF0.04026
aF0.0408
aF0.04136
aF0.04194
aF0.04253
aF0.04313
aF0.04376
aF0.0444
aF0.04506
aF0.04575
aF0.04645
aF0.04718
aF0.04792
aF0.0487
aF0.0495
aF0.05032
aF0.05117
aF0.05205
aF0.05297
aF0.05391
aF0.05489
aF0.05591
aF0.05696
aF0.05806
aF0.0592
aF0.06038
aF0.06161
aF0.06289
aF0.06423
aF0.06563
aF0.06709
aF0.06861
aF0.0702
aF0.07188
aF0.07363
aF0.07547
aF0.0774
aF0.07944
aF0.08158
aF0.08385
aF0.08624
aF0.08878
aF0.09147
aF0.09432
aF0.09736
aF0.10061
aF0.10407
aF0.10779
aF0.11178
aF0.11607
aF0.12071
aF0.12574
aF0.1312
aF0.13716
aF0.14368
aF0.15086
aF0.15879
aF0.1676
aF0.17745
aF0.18852
aF0.20108
aF0.21542
aF0.23196
aF0.25126
aF0.27406
aF0.30141
aF0.33483
aF0.37657
aF0.43022
aF0.50168
aF0.60161
aF0.75126
aF1.0
aa(lp2
F0.0
aF45.0
aF90.0
aa(lp3
I1
aI1
aI1
aa(lp4
(lp5
(lp6
I21434
aI21505
aI21578
aI21651
aI21724
aI21798
aI21873
aI21948
aI22023
aI22099
aI22176
aI22253
aI22331
aI22409
aI22487
aI22567
aI22647
aI22727
aI22808
aI22890
aI22972
aI23055
aI23138
aI23222
aI23307
aI23392
aI23478
aI23564
aI23651
aI23739
aI23827
aI23917
aI24006
aI24097
aI24188
aI24280
aI24372
aI24466
aI24560
aI24654
aI24750
aI24846
aI24943
aI25041
aI25139
aI25238
aI25338
aI25439
aI25541
aI25643
aI25747
aI25851
aI25956
aI26062
aI26169
aI26276
aI26385
aI26494
aI26605
aI26716
aI26828
aI26942
aI27056
aI27171
aI27287
aI27404
aI27522
aI27642
aI27762
aI27883
aI28006
aI28129
aI28254
aI28379
aI28506
aI28634
aI28763
aI28894
aI29025
aI29158
aI29292
aI29427
aI29564
aI29701
aI29841
aI29981
aI30123
aI30266
aI30410
aI30556
aI30703
aI30852
aI31002
aI31154
aI31307
aI31462
aI31618
aI31776
aI31936
aI32097
aI32260
aI32424
aI32590
aI32758
aI32928
aI33099
aI33273
aI33448
aI33625
aI33803
aI33984
aI34167
aI34352
aI34539
aI34728
aI34919
aI35112
aI35307
aI35505
aI35704
aI35907
aI36111
aI36318
aI36527
aI36739
aI36953
aI37170
aI37389
aI37611
aI37836
aI38063
aI38293
aI38526
aI38762
aI39001
aI39243
aI39488
aI39736
aI39988
aI40242
aI40500
aI40762
aI41027
aI41295
aI41567
aI41842
aI42122
aI42405
aI42692
aI42983
aI43278
aI43578
aI43881
aI44189
aI44501
aI44818
aI45140
aI45466
aI45798
aI46134
aI46475
aI46821
aI47173
aI47531
aI47893
aI48262
aI48636
aI49017
aI49404
aI49796
aI50196
aI50602
aI51015
aI51435
aI51862
aI52296
aI52738
aI53188
aI53645
aI54111
aI54585
aI55068
aI55560
aI56061
aI56572
aI57092
aI57622
aI58163
aI58714
aI59276
aI59849
aI60434
aI61031
aI61640
aI62262
aI62897
aI63546
aI64209
aI64886
aI65579
aI66287
aI67012
aI67753
aI68511
aI69288
aI70083
aI70898
aI71733
aI72588
aI73466
aI74365
aI75289
aI76237
aI77211
aI78211
aI79239
aI80296
aI81383
aI82503
aI83655
aI84842
aI86065
aI87327
aI88629
aI89973
aI91361
aI92796
aI94280
aI95816
aI97407
aI99055
aF100770.0
aF102540.0
aF104380.0
aF106300.0
aF108290.0
aF110370.0
aF112540.0
aF114790.0
aF117150.0
aF119620.0
aF122200.0
aF124910.0
aF127750.0
aF130740.0
aF133870.0
aF137180.0
aF140670.0
aF144360.0
aF148260.0
aF152390.0
aF156770.0
aF161440.0
aF166400.0
aF171700.0
aF177360.0
aF183430.0
aF189930.0
aF196910.0
aF204420.0
aF212510.0
aF221250.0
aF230680.0
aF240890.0
aF251950.0
aF263940.0
aF276950.0
aF291070.0
aF306410.0
aF323090.0
aF341230.0
aF360970.0
aF382470.0
aF405910.0
aF431460.0
aF459350.0
aF489780.0
aF522970.0
aF559120.0
aF598350.0
aF640640.0
aF685710.0
aF732790.0
aF780290.0
aF825300.0
aF863050.0
aF886560.0
aF887240.0
aF857210.0
aF793150.0
aF699220.0
aF586170.0
aF467230.0
aF354020.0
aF254720.0
aF174240.0
aF109250.0
aI53753
aI29437
aI10524
aa(lp7
I15156
aI15207
aI15258
aI15309
aI15361
aI15414
aI15466
aI15519
aI15573
aI15627
aI15681
aI15735
aI15790
aI15845
aI15901
aI15957
aI16014
aI16070
aI16128
aI16185
aI16244
aI16302
aI16361
aI16420
aI16480
aI16540
aI16601
aI16662
aI16724
aI16786
aI16849
aI16912
aI16975
aI17039
aI17103
aI17168
aI17234
aI17300
aI17366
aI17433
aI17501
aI17569
aI17637
aI17706
aI17776
aI17846
aI17917
aI17988
aI18060
aI18133
aI18206
aI18279
aI18354
aI18429
aI18504
aI18580
aI18657
aI18734
aI18812
aI18891
aI18970
aI19051
aI19131
aI19213
aI19295
aI19378
aI19461
aI19546
aI19631
aI19716
aI19803
aI19890
aI19978
aI20067
aI20157
aI20247
aI20339
aI20431
aI20524
aI20618
aI20713
aI20808
aI20905
aI21002
aI21100
aI21200
aI21300
aI21401
aI21503
aI21606
aI21711
aI21816
aI21922
aI22029
aI22138
aI22247
aI22358
aI22469
aI22582
aI22696
aI22811
aI22927
aI23045
aI23164
aI23283
aI23405
aI23527
aI23651
aI23776
aI23903
aI24031
aI24160
aI24290
aI24423
aI24556
aI24691
aI24828
aI24966
aI25106
aI25247
aI25390
aI25534
aI25681
aI25829
aI25978
aI26130
aI26283
aI26438
aI26595
aI26754
aI26915
aI27077
aI27242
aI27409
aI27578
aI27749
aI27922
aI28098
aI28276
aI28456
aI28638
aI28823
aI29010
aI29200
aI29392
aI29587
aI29785
aI29985
aI30188
aI30394
aI30602
aI30814
aI31029
aI31246
aI31467
aI31691
aI31919
aI32150
aI32384
aI32621
aI32863
aI33108
aI33357
aI33609
aI33866
aI34126
aI34391
aI34660
aI34934
aI35211
aI35494
aI35781
aI36073
aI36370
aI36672
aI36979
aI37291
aI37609
aI37933
aI38262
aI38598
aI38939
aI39287
aI39641
aI40002
aI40370
aI40745
aI41127
aI41517
aI41914
aI42320
aI42733
aI43155
aI43586
aI44026
aI44475
aI44934
aI45403
aI45882
aI46371
aI46872
aI47384
aI47909
aI48445
aI48994
aI49556
aI50132
aI50723
aI51328
aI51948
aI52584
aI53237
aI53908
aI54596
aI55303
aI56030
aI56778
aI57547
aI58338
aI59153
aI59992
aI60857
aI61750
aI62670
aI63620
aI64602
aI65617
aI66666
aI67752
aI68877
aI70043
aI71252
aI72507
aI73810
aI75165
aI76575
aI78044
aI79575
aI81172
aI82841
aI84585
aI86412
aI88326
aI90334
aI92444
aI94664
aI97002
aI99469
aF102070.0
aF104830.0
aF107750.0
aF110860.0
aF114150.0
aF117670.0
aF121410.0
aF125420.0
aF129700.0
aF134300.0
aF139230.0
aF144550.0
aF150270.0
aF156440.0
aF163120.0
aF170340.0
aF178160.0
aF186630.0
aF195830.0
aF205820.0
aF216660.0
aF228460.0
aF241280.0
aF255240.0
aF270450.0
aF287020.0
aF305090.0
aF324810.0
aF346330.0
aF369800.0
aF395360.0
aF423090.0
aF453000.0
aF484870.0
aF518160.0
aF551750.0
aF583570.0
aF610270.0
aF626890.0
aF627370.0
aF606140.0
aF560850.0
aF494420.0
aF414480.0
aF330380.0
aF250330.0
aF180110.0
aF123210.0
aI77249
aI38009
aI20815
aF7441.9
aa(lp8
F0.00025727
aF0.00025813
aF0.000259
aF0.00025988
aF0.00026076
aF0.00026165
aF0.00026254
aF0.00026344
aF0.00026435
aF0.00026526
aF0.00026618
aF0.0002671
aF0.00026804
aF0.00026897
aF0.00026992
aF0.00027087
aF0.00027183
aF0.00027279
aF0.00027377
aF0.00027475
aF0.00027573
aF0.00027672
aF0.00027773
aF0.00027873
aF0.00027975
aF0.00028077
aF0.0002818
aF0.00028284
aF0.00028388
aF0.00028494
aF0.000286
aF0.00028707
aF0.00028815
aF0.00028923
aF0.00029033
aF0.00029143
aF0.00029254
aF0.00029366
aF0.00029479
aF0.00029592
aF0.00029707
aF0.00029822
aF0.00029939
aF0.00030056
aF0.00030174
aF0.00030293
aF0.00030413
aF0.00030534
aF0.00030656
aF0.00030779
aF0.00030903
aF0.00031028
aF0.00031155
aF0.00031282
aF0.0003141
aF0.00031539
aF0.00031669
aF0.00031801
aF0.00031933
aF0.00032067
aF0.00032201
aF0.00032337
aF0.00032474
aF0.00032612
aF0.00032752
aF0.00032892
aF0.00033034
aF0.00033177
aF0.00033322
aF0.00033467
aF0.00033614
aF0.00033762
aF0.00033912
aF0.00034063
aF0.00034215
aF0.00034368
aF0.00034523
aF0.0003468
aF0.00034838
aF0.00034997
aF0.00035158
aF0.0003532
aF0.00035484
aF0.00035649
aF0.00035816
aF0.00035985
aF0.00036155
aF0.00036326
aF0.000365
aF0.00036675
aF0.00036852
aF0.0003703
aF0.0003721
aF0.00037392
aF0.00037576
aF0.00037762
aF0.00037949
aF0.00038139
aF0.0003833
aF0.00038524
aF0.00038719
aF0.00038916
aF0.00039116
aF0.00039317
aF0.00039521
aF0.00039726
aF0.00039934
aF0.00040144
aF0.00040357
aF0.00040571
aF0.00040788
aF0.00041008
aF0.00041229
aF0.00041453
aF0.0004168
aF0.00041909
aF0.00042141
aF0.00042375
aF0.00042612
aF0.00042852
aF0.00043095
aF0.0004334
aF0.00043588
aF0.00043839
aF0.00044093
aF0.0004435
aF0.0004461
aF0.00044873
aF0.0004514
aF0.00045409
aF0.00045682
aF0.00045958
aF0.00046238
aF0.00046521
aF0.00046808
aF0.00047098
aF0.00047392
aF0.0004769
aF0.00047991
aF0.00048297
aF0.00048606
aF0.0004892
aF0.00049237
aF0.00049559
aF0.00049885
aF0.00050216
aF0.00050551
aF0.00050891
aF0.00051235
aF0.00051584
aF0.00051938
aF0.00052297
aF0.00052662
aF0.00053031
aF0.00053406
aF0.00053786
aF0.00054172
aF0.00054563
aF0.0005496
aF0.00055363
aF0.00055773
aF0.00056188
aF0.0005661
aF0.00057039
aF0.00057474
aF0.00057916
aF0.00058365
aF0.00058821
aF0.00059285
aF0.00059756
aF0.00060235
aF0.00060722
aF0.00061217
aF0.00061721
aF0.00062233
aF0.00062754
aF0.00063284
aF0.00063823
aF0.00064372
aF0.00064931
aF0.00065499
aF0.00066078
aF0.00066668
aF0.00067269
aF0.00067881
aF0.00068505
aF0.0006914
aF0.00069788
aF0.00070449
aF0.00071123
aF0.0007181
aF0.00072511
aF0.00073226
aF0.00073957
aF0.00074702
aF0.00075464
aF0.00076242
aF0.00077036
aF0.00077848
aF0.00078678
aF0.00079527
aF0.00080395
aF0.00081284
aF0.00082193
aF0.00083123
aF0.00084076
aF0.00085052
aF0.00086052
aF0.00087077
aF0.00088128
aF0.00089207
aF0.00090313
aF0.00091449
aF0.00092615
aF0.00093813
aF0.00095044
aF0.0009631
aF0.00097612
aF0.00098953
aF0.0010033
aF0.0010175
aF0.0010322
aF0.0010473
aF0.0010629
aF0.001079
aF0.0010956
aF0.0011127
aF0.0011305
aF0.0011489
aF0.0011679
aF0.0011876
aF0.0012081
aF0.0012293
aF0.0012514
aF0.0012743
aF0.0012981
aF0.0013229
aF0.0013488
aF0.0013758
aF0.001404
aF0.0014335
aF0.0014643
aF0.0014967
aF0.0015306
aF0.0015662
aF0.0016036
aF0.0016431
aF0.0016847
aF0.0017286
aF0.0017751
aF0.0018244
aF0.0018766
aF0.0019321
aF0.0019912
aF0.0020543
aF0.0021216
aF0.0021936
aF0.0022708
aF0.0023536
aF0.0024427
aF0.0025386
aF0.002642
aF0.0027536
aF0.0028742
aF0.0030047
aF0.003146
aF0.003299
aF0.0034649
aF0.0036447
aF0.0038399
aF0.0040516
aF0.0042815
aF0.0045312
aF0.0048025
aF0.0050973
aF0.0054179
aF0.0057665
aF0.0061454
aF0.0065569
aF0.007003
aF0.0074845
aF0.008001
aF0.0085492
aF0.0091204
aF0.009698
aF0.010251
aF0.010729
aF0.011048
aF0.011088
aF0.010695
aF0.0097275
aF0.0081416
aF0.0061035
aF0.0041772
aF0.0047938
aF0.007973
aF0.0021662
aF0.0015529
aF0.00068139
aF0.00021293
aaa(lp9
(lp10
F0.0
aF0.0
aF0.0
aF0.0
aF0.0
aF0.0
aF0.0
aF0.0
aF0.0
aF0.0
aF0.0
aF0.0
aF0.0
aF0.0
aF0.0
aF0.0
aF0.0
aF0.0
aF0.0
aF0.0
aF0.0
aF0.0
aF0.0
aF0.0
aF0.0
aF0.0
aF0.0
aF0.0
aF0.0
aF0.0
aF0.0
aF0.0
aF0.0
aF0.0
aF0.0
aF0.0
aF0.0
aF0.0
aF0.0
aF0.0
aF0.0
aF0.0
aF0.0
aF0.0
aF0.0
aF0.0
aF0.0
aF0.0
aF0.0
aF0.0
aF0.0
aF0.0
aF0.0
aF0.0
aF0.0
aF0.0
aF0.0
aF0.0
aF0.0
aF0.0
aF0.0
aF0.0
aF0.0
aF0.0
aF0.0
aF0.0
aF0.0
aF0.0
aF0.0
aF0.0
aF0.0
aF0.0
aF0.0
aF0.0
aF0.0
aF0.0
aF0.0
aF0.0
aF0.0
aF0.0
aF0.0
aF0.0
aF0.0
aF0.0
aF0.0
aF0.0
aF0.0
aF0.0
aF0.0
aF0.0
aF0.0
aF0.0
aF0.0
aF0.0
aF0.0
aF0.0
aF0.0
aF0.0
aF0.0
aF0.0
aF0.0
aF0.0
aF0.0
aF0.0
aF0.0
aF0.0
aF0.0
aF0.0
aF0.0
aF0.0
aF0.0
aF0.0
aF0.0
aF0.0
aF0.0
aF0.0
aF0.0
aF0.0
aF0.0
aF0.0
aF0.0
aF0.0
aF0.0
aF0.0
aF0.0
aF0.0
aF0.0
aF0.0
aF0.0
aF0.0
aF0.0
aF0.0
aF0.0
aF0.0
aF0.0
aF0.0
aF0.0
aF0.0
aF0.0
aF0.0
aF0.0
aF0.0
aF0.0
aF0.0
aF0.0
aF0.0
aF0.0
aF0.0
aF0.0
aF0.0
aF0.0
aF0.0
aF0.0
aF0.0
aF0.0
aF0.0
aF0.0
aF0.0
aF0.0
aF0.0
aF0.0
aF0.0
aF0.0
aF0.0
aF0.0
aF0.0
aF0.0
aF0.0
aF0.0
aF0.0
aF0.0
aF0.0
aF0.0
aF0.0
aF0.0
aF0.0
aF0.0
aF0.0
aF0.0
aF0.0
aF0.0
aF0.0
aF0.0
aF0.0
aF0.0
aF0.0
aF0.0
aF0.0
aF0.0
aF0.0
aF0.0
aF0.0
aF0.0
aF0.0
aF0.0
aF0.0
aF0.0
aF0.0
aF0.0
aF0.0
aF0.0
aF0.0
aF0.0
aF0.0
aF0.0
aF0.0
aF0.0
aF0.0
aF0.0
aF0.0
aF0.0
aF0.0
aF0.0
aF0.0
aF0.0
aF0.0
aF0.0
aF0.0
aF0.0
aF0.0
aF0.0
aF0.0
aF0.0
aF0.0
aF0.0
aF0.0
aF0.0
aF0.0
aF0.0
aF0.0
aF0.0
aF0.0
aF0.0
aF0.0
aF0.0
aF0.0
aF0.0
aF0.0
aF0.0
aF0.0
aF0.0
aF0.0
aF0.0
aF0.0
aF0.0
aF0.0
aF0.0
aF0.0
aF0.0
aF0.0
aF0.0
aF0.0
aF0.0
aF0.0
aF0.0
aF0.0
aF0.0
aF0.0
aF0.0
aF0.0
aF0.0
aF0.0
aF0.0
aF0.0
aF0.0
aF0.0
aF0.0
aF0.0
aF0.0
aF0.0
aF0.0
aF0.0
aF0.0
aF0.0
aF0.0
aF0.0
aF0.0
aF0.0
aF0.0
aF0.0
aF0.0
aF0.0
aF0.0
aF0.0
aF0.0
aF0.0
aF0.0
aF0.0
aF0.0
aF0.0
aF0.0
aF0.0
aF0.0
aF0.0
aF0.0
aF0.0
aF0.0
aF0.0
aF0.0
aF0.0
aa(lp11
I15156
aI15207
aI15258
aI15309
aI15361
aI15414
aI15466
aI15519
aI15573
aI15627
aI15681
aI15735
aI15790
aI15845
aI15901
aI15957
aI16014
aI16070
aI16128
aI16185
aI16244
aI16302
aI16361
aI16420
aI16480
aI16540
aI16601
aI16662
aI16724
aI16786
aI16849
aI16912
aI16975
aI17039
aI17103
aI17168
aI17234
aI17300
aI17366
aI17433
aI17501
aI17569
aI17637
aI17706
aI17776
aI17846
aI17917
aI17988
aI18060
aI18133
aI18206
aI18279
aI18354
aI18429
aI18504
aI18580
aI18657
aI18734
aI18812
aI18891
aI18970
aI19051
aI19131
aI19213
aI19295
aI19378
aI19461
aI19546
aI19631
aI19716
aI19803
aI19890
aI19978
aI20067
aI20157
aI20247
aI20339
aI20431
aI20524
aI20618
aI20713
aI20808
aI20905
aI21002
aI21100
aI21200
aI21300
aI21401
aI21503
aI21606
aI21711
aI21816
aI21922
aI22029
aI22138
aI22247
aI22358
aI22469
aI22582
aI22696
aI22811
aI22927
aI23045
aI23164
aI23284
aI23405
aI23527
aI23651
aI23776
aI23903
aI24031
aI24160
aI24290
aI24423
aI24556
aI24691
aI24828
aI24966
aI25106
aI25247
aI25390
aI25534
aI25681
aI25829
aI25978
aI26130
aI26283
aI26438
aI26595
aI26754
aI26915
aI27077
aI27242
aI27409
aI27578
aI27749
aI27922
aI28098
aI28276
aI28456
aI28638
aI28823
aI29010
aI29200
aI29392
aI29587
aI29785
aI29985
aI30188
aI30394
aI30602
aI30814
aI31029
aI31246
aI31467
aI31691
aI31919
aI32150
aI32384
aI32621
aI32863
aI33108
aI33357
aI33609
aI33866
aI34126
aI34391
aI34660
aI34934
aI35211
aI35494
aI35781
aI36073
aI36370
aI36672
aI36979
aI37291
aI37609
aI37933
aI38262
aI38598
aI38939
aI39287
aI39641
aI40002
aI40370
aI40745
aI41127
aI41517
aI41914
aI42320
aI42733
aI43155
aI43586
aI44026
aI44475
aI44934
aI45403
aI45882
aI46371
aI46872
aI47384
aI47909
aI48445
aI48994
aI49556
aI50132
aI50723
aI51328
aI51948
aI52584
aI53237
aI53908
aI54596
aI55303
aI56030
aI56778
aI57547
aI58338
aI59153
aI59992
aI60857
aI61750
aI62670
aI63620
aI64602
aI65617
aI66666
aI67752
aI68877
aI70043
aI71252
aI72507
aI73810
aI75165
aI76575
aI78044
aI79575
aI81172
aI82841
aI84585
aI86412
aI88326
aI90334
aI92444
aI94664
aI97002
aI99469
aF102070.0
aF104830.0
aF107750.0
aF110860.0
aF114150.0
aF117670.0
aF121410.0
aF125420.0
aF129700.0
aF134300.0
aF139230.0
aF144550.0
aF150270.0
aF156440.0
aF163120.0
aF170340.0
aF178160.0
aF186630.0
aF195830.0
aF205820.0
aF216660.0
aF228460.0
aF241280.0
aF255240.0
aF270450.0
aF287020.0
aF305090.0
aF324810.0
aF346330.0
aF369800.0
aF395360.0
aF423090.0
aF453000.0
aF484870.0
aF518160.0
aF551750.0
aF583570.0
aF610270.0
aF626890.0
aF627370.0
aF606140.0
aF560850.0
aF494420.0
aF414480.0
aF330380.0
aF250330.0
aF180110.0
aF123210.0
aI77249
aI38009
aI20815
aF7441.9
aa(lp12
I21434
aI21505
aI21578
aI21651
aI21724
aI21798
aI21873
aI21948
aI22023
aI22099
aI22176
aI22253
aI22331
aI22409
aI22487
aI22567
aI22647
aI22727
aI22808
aI22890
aI22972
aI23055
aI23138
aI23222
aI23307
aI23392
aI23478
aI23564
aI23651
aI23739
aI23827
aI23917
aI24006
aI24097
aI24188
aI24280
aI24372
aI24466
aI24560
aI24654
aI24750
aI24846
aI24943
aI25041
aI25139
aI25238
aI25338
aI25439
aI25541
aI25643
aI25747
aI25851
aI25956
aI26062
aI26169
aI26276
aI26385
aI26494
aI26605
aI26716
aI26828
aI26942
aI27056
aI27171
aI27287
aI27404
aI27522
aI27642
aI27762
aI27883
aI28006
aI28129
aI28254
aI28379
aI28506
aI28634
aI28763
aI28894
aI29025
aI29158
aI29292
aI29427
aI29564
aI29701
aI29841
aI29981
aI30123
aI30266
aI30410
aI30556
aI30703
aI30852
aI31002
aI31154
aI31307
aI31462
aI31618
aI31776
aI31936
aI32097
aI32260
aI32424
aI32590
aI32758
aI32928
aI33099
aI33273
aI33448
aI33625
aI33803
aI33984
aI34167
aI34352
aI34539
aI34728
aI34919
aI35112
aI35307
aI35505
aI35704
aI35907
aI36111
aI36318
aI36527
aI36739
aI36953
aI37170
aI37389
aI37611
aI37836
aI38063
aI38293
aI38526
aI38762
aI39001
aI39243
aI39488
aI39736
aI39988
aI40242
aI40500
aI40762
aI41027
aI41295
aI41567
aI41842
aI42122
aI42405
aI42692
aI42983
aI43278
aI43578
aI43881
aI44189
aI44501
aI44818
aI45140
aI45466
aI45798
aI46134
aI46475
aI46821
aI47173
aI47531
aI47893
aI48262
aI48636
aI49017
aI49404
aI49796
aI50196
aI50602
aI51015
aI51435
aI51862
aI52296
aI52738
aI53188
aI53645
aI54111
aI54585
aI55068
aI55560
aI56061
aI56572
aI57092
aI57622
aI58163
aI58714
aI59276
aI59849
aI60434
aI61031
aI61640
aI62262
aI62897
aI63546
aI64209
aI64886
aI65579
aI66287
aI67012
aI67753
aI68511
aI69288
aI70083
aI70898
aI71733
aI72588
aI73466
aI74365
aI75289
aI76237
aI77211
aI78211
aI79239
aI80296
aI81383
aI82503
aI83655
aI84842
aI86065
aI87327
aI88629
aI89973
aI91361
aI92796
aI94280
aI95816
aI97407
aI99055
aF100770.0
aF102540.0
aF104380.0
aF106300.0
aF108290.0
aF110370.0
aF112540.0
aF114790.0
aF117150.0
aF119620.0
aF122200.0
aF124910.0
aF127750.0
aF130740.0
aF133870.0
aF137180.0
aF140670.0
aF144360.0
aF148260.0
aF152390.0
aF156770.0
aF161440.0
aF166400.0
aF171700.0
aF177360.0
aF183430.0
aF189930.0
aF196910.0
aF204420.0
aF212510.0
aF221250.0
aF230680.0
aF240890.0
aF251950.0
aF263940.0
aF276950.0
aF291070.0
aF306410.0
aF323090.0
aF341230.0
aF360970.0
aF382470.0
aF405910.0
aF431460.0
aF459350.0
aF489780.0
aF522970.0
aF559120.0
aF598350.0
aF640640.0
aF685710.0
aF732790.0
aF780290.0
aF825300.0
aF863050.0
aF886560.0
aF887240.0
aF857210.0
aF793150.0
aF699220.0
aF586170.0
aF467230.0
aF354020.0
aF254720.0
aF174240.0
aF109250.0
aI53753
aI29437
aI10524
aaa(lp13
(lp14
F694490.0
aF694460.0
aF694440.0
aF694420.0
aF694400.0
aF694370.0
aF694350.0
aF694330.0
aF694310.0
aF694280.0
aF694260.0
aF694230.0
aF694210.0
aF694180.0
aF694160.0
aF694130.0
aF694110.0
aF694080.0
aF694060.0
aF694030.0
aF694000.0
aF693980.0
aF693950.0
aF693920.0
aF693900.0
aF693870.0
aF693840.0
aF693810.0
aF693780.0
aF693750.0
aF693720.0
aF693690.0
aF693660.0
aF693630.0
aF693600.0
aF693570.0
aF693540.0
aF693510.0
aF693470.0
aF693440.0
aF693410.0
aF693380.0
aF693340.0
aF693310.0
aF693270.0
aF693240.0
aF693200.0
aF693170.0
aF693130.0
aF693090.0
aF693060.0
aF693020.0
aF692980.0
aF692940.0
aF692900.0
aF692860.0
aF692820.0
aF692780.0
aF692740.0
aF692700.0
aF692660.0
aF692620.0
aF692570.0
aF692530.0
aF692490.0
aF692440.0
aF692400.0
aF692350.0
aF692310.0
aF692260.0
aF692210.0
aF692160.0
aF692110.0
aF692070.0
aF692020.0
aF691960.0
aF691910.0
aF691860.0
aF691810.0
aF691760.0
aF691700.0
aF691650.0
aF691590.0
aF691530.0
aF691480.0
aF691420.0
aF691360.0
aF691300.0
aF691240.0
aF691180.0
aF691120.0
aF691050.0
aF690990.0
aF690930.0
aF690860.0
aF690790.0
aF690730.0
aF690660.0
aF690590.0
aF690520.0
aF690440.0
aF690370.0
aF690300.0
aF690220.0
aF690150.0
aF690070.0
aF689990.0
aF689910.0
aF689830.0
aF689750.0
aF689660.0
aF689580.0
aF689490.0
aF689410.0
aF689320.0
aF689230.0
aF689140.0
aF689040.0
aF688950.0
aF688850.0
aF688750.0
aF688650.0
aF688550.0
aF688450.0
aF688350.0
aF688240.0
aF688130.0
aF688020.0
aF687910.0
aF687800.0
aF687680.0
aF687560.0
aF687440.0
aF687320.0
aF687200.0
aF687070.0
aF686940.0
aF686810.0
aF686680.0
aF686540.0
aF686400.0
aF686260.0
aF686120.0
aF685970.0
aF685820.0
aF685670.0
aF685520.0
aF685360.0
aF685200.0
aF685030.0
aF684870.0
aF684690.0
aF684520.0
aF684340.0
aF684160.0
aF683980.0
aF683790.0
aF683600.0
aF683400.0
aF683200.0
aF682990.0
aF682790.0
aF682570.0
aF682350.0
aF682130.0
aF681900.0
aF681670.0
aF681430.0
aF681190.0
aF680940.0
aF680690.0
aF680430.0
aF680160.0
aF679890.0
aF679610.0
aF679320.0
aF679030.0
aF678730.0
aF678430.0
aF678110.0
aF677790.0
aF677460.0
aF677120.0
aF676780.0
aF676420.0
aF676060.0
aF675690.0
aF675300.0
aF674910.0
aF674510.0
aF674090.0
aF673670.0
aF673230.0
aF672780.0
aF672320.0
aF671850.0
aF671360.0
aF670860.0
aF670340.0
aF669810.0
aF669270.0
aF668700.0
aF668130.0
aF667530.0
aF666910.0
aF666280.0
aF665630.0
aF664950.0
aF664260.0
aF663540.0
aF662800.0
aF662040.0
aF661250.0
aF660430.0
aF659590.0
aF658710.0
aF657810.0
aF656880.0
aF655910.0
aF654910.0
aF653870.0
aF652790.0
aF651680.0
aF650520.0
aF649320.0
aF648070.0
aF646770.0
aF645420.0
aF644020.0
aF642570.0
aF641050.0
aF639470.0
aF637820.0
aF636100.0
aF634310.0
aF632450.0
aF630490.0
aF628460.0
aF626320.0
aF624090.0
aF621760.0
aF619320.0
aF616750.0
aF614070.0
aF611250.0
aF608290.0
aF605180.0
aF601910.0
aF598470.0
aF594850.0
aF591030.0
aF587010.0
aF582760.0
aF578290.0
aF573560.0
aF568560.0
aF563270.0
aF557680.0
aF551770.0
aF545500.0
aF538860.0
aF531820.0
aF524360.0
aF516440.0
aF508030.0
aF499100.0
aF489610.0
aF479520.0
aF468790.0
aF457360.0
aF445190.0
aF432210.0
aF418380.0
aF403630.0
aF387900.0
aF371120.0
aF353250.0
aF334230.0
aF314030.0
aF292630.0
aF270040.0
aF246320.0
aF221580.0
aF195980.0
aF169800.0
aF143440.0
aF117420.0
aI92389
aI69135
aI48493
aI31248
aI17979
aF8888.5
aF3782.8
aF427.45
aF23.738
aF91.564
aF64.875
aF42.325
aF19.235
aa(lp15
F694490.0
aF694460.0
aF694440.0
aF694420.0
aF694400.0
aF694370.0
aF694350.0
aF694330.0
aF694310.0
aF694280.0
aF694260.0
aF694230.0
aF694210.0
aF694180.0
aF694160.0
aF694130.0
aF694110.0
aF694080.0
aF694060.0
aF694030.0
aF694000.0
aF693980.0
aF693950.0
aF693920.0
aF693900.0
aF693870.0
aF693840.0
aF693810.0
aF693780.0
aF693750.0
aF693720.0
aF693690.0
aF693660.0
aF693630.0
aF693600.0
aF693570.0
aF693540.0
aF693510.0
aF693470.0
aF693440.0
aF693410.0
aF693380.0
aF693340.0
aF693310.0
aF693270.0
aF693240.0
aF693200.0
aF693170.0
aF693130.0
aF693090.0
aF693060.0
aF693020.0
aF692980.0
aF692940.0
aF692900.0
aF692860.0
aF692820.0
aF692780.0
aF692740.0
aF692700.0
aF692660.0
aF692620.0
aF692570.0
aF692530.0
aF692490.0
aF692440.0
aF692400.0
aF692350.0
aF692310.0
aF692260.0
aF692210.0
aF692160.0
aF692110.0
aF692070.0
aF692020.0
aF691960.0
aF691910.0
aF691860.0
aF691810.0
aF691760.0
aF691700.0
aF691650.0
aF691590.0
aF691530.0
aF691480.0
aF691420.0
aF691360.0
aF691300.0
aF691240.0
aF691180.0
aF691120.0
aF691050.0
aF690990.0
aF690930.0
aF690860.0
aF690790.0
aF690730.0
aF690660.0
aF690590.0
aF690520.0
aF690440.0
aF690370.0
aF690300.0
aF690220.0
aF690150.0
aF690070.0
aF689990.0
aF689910.0
aF689830.0
aF689750.0
aF689660.0
aF689580.0
aF689490.0
aF689410.0
aF689320.0
aF689230.0
aF689140.0
aF689040.0
aF688950.0
aF688850.0
aF688750.0
aF688650.0
aF688550.0
aF688450.0
aF688350.0
aF688240.0
aF688130.0
aF688020.0
aF687910.0
aF687800.0
aF687680.0
aF687560.0
aF687440.0
aF687320.0
aF687200.0
aF687070.0
aF686940.0
aF686810.0
aF686680.0
aF686540.0
aF686400.0
aF686260.0
aF686120.0
aF685970.0
aF685820.0
aF685670.0
aF685520.0
aF685360.0
aF685200.0
aF685030.0
aF684870.0
aF684690.0
aF684520.0
aF684340.0
aF684160.0
aF683980.0
aF683790.0
aF683600.0
aF683400.0
aF683200.0
aF682990.0
aF682790.0
aF682570.0
aF682350.0
aF682130.0
aF681900.0
aF681670.0
aF681430.0
aF681190.0
aF680940.0
aF680690.0
aF680430.0
aF680160.0
aF679890.0
aF679610.0
aF679320.0
aF679030.0
aF678730.0
aF678430.0
aF678110.0
aF677790.0
aF677460.0
aF677120.0
aF676780.0
aF676420.0
aF676060.0
aF675690.0
aF675300.0
aF674910.0
aF674510.0
aF674090.0
aF673670.0
aF673230.0
aF672780.0
aF672320.0
aF671850.0
aF671360.0
aF670860.0
aF670340.0
aF669810.0
aF669270.0
aF668700.0
aF668130.0
aF667530.0
aF666910.0
aF666280.0
aF665630.0
aF664950.0
aF664260.0
aF663540.0
aF662800.0
aF662040.0
aF661250.0
aF660430.0
aF659590.0
aF658710.0
aF657810.0
aF656880.0
aF655910.0
aF654910.0
aF653870.0
aF652790.0
aF651680.0
aF650520.0
aF649320.0
aF648070.0
aF646770.0
aF645420.0
aF644020.0
aF642570.0
aF641050.0
aF639470.0
aF637820.0
aF636100.0
aF634310.0
aF632450.0
aF630490.0
aF628460.0
aF626320.0
aF624090.0
aF621760.0
aF619320.0
aF616750.0
aF614070.0
aF611250.0
aF608290.0
aF605180.0
aF601910.0
aF598470.0
aF594850.0
aF591030.0
aF587010.0
aF582760.0
aF578290.0
aF573560.0
aF568560.0
aF563270.0
aF557680.0
aF551770.0
aF545500.0
aF538860.0
aF531820.0
aF524360.0
aF516440.0
aF508030.0
aF499100.0
aF489610.0
aF479520.0
aF468790.0
aF457360.0
aF445190.0
aF432210.0
aF418380.0
aF403630.0
aF387900.0
aF371120.0
aF353250.0
aF334230.0
aF314030.0
aF292630.0
aF270040.0
aF246320.0
aF221580.0
aF195980.0
aF169800.0
aF143440.0
aF117420.0
aI92389
aI69135
aI48493
aI31248
aI17979
aF8888.5
aF3782.8
aF427.44
aF23.784
aF91.556
aF64.874
aF42.307
aF19.238
aa(lp16
F694490.0
aF694460.0
aF694440.0
aF694420.0
aF694400.0
aF694370.0
aF694350.0
aF694330.0
aF694310.0
aF694280.0
aF694260.0
aF694230.0
aF694210.0
aF694180.0
aF694160.0
aF694130.0
aF694110.0
aF694080.0
aF694060.0
aF694030.0
aF694000.0
aF693980.0
aF693950.0
aF693920.0
aF693900.0
aF693870.0
aF693840.0
aF693810.0
aF693780.0
aF693750.0
aF693720.0
aF693690.0
aF693660.0
aF693630.0
aF693600.0
aF693570.0
aF693540.0
aF693510.0
aF693470.0
aF693440.0
aF693410.0
aF693380.0
aF693340.0
aF693310.0
aF693270.0
aF693240.0
aF693200.0
aF693170.0
aF693130.0
aF693090.0
aF693060.0
aF693020.0
aF692980.0
aF692940.0
aF692900.0
aF692860.0
aF692820.0
aF692780.0
aF692740.0
aF692700.0
aF692660.0
aF692620.0
aF692570.0
aF692530.0
aF692490.0
aF692440.0
aF692400.0
aF692350.0
aF692310.0
aF692260.0
aF692210.0
aF692160.0
aF692110.0
aF692070.0
aF692020.0
aF691960.0
aF691910.0
aF691860.0
aF691810.0
aF691760.0
aF691700.0
aF691650.0
aF691590.0
aF691530.0
aF691480.0
aF691420.0
aF691360.0
aF691300.0
aF691240.0
aF691180.0
aF691120.0
aF691050.0
aF690990.0
aF690930.0
aF690860.0
aF690790.0
aF690730.0
aF690660.0
aF690590.0
aF690520.0
aF690440.0
aF690370.0
aF690300.0
aF690220.0
aF690150.0
aF690070.0
aF689990.0
aF689910.0
aF689830.0
aF689750.0
aF689660.0
aF689580.0
aF689490.0
aF689410.0
aF689320.0
aF689230.0
aF689140.0
aF689040.0
aF688950.0
aF688850.0
aF688750.0
aF688650.0
aF688550.0
aF688450.0
aF688350.0
aF688240.0
aF688130.0
aF688020.0
aF687910.0
aF687800.0
aF687680.0
aF687560.0
aF687440.0
aF687320.0
aF687200.0
aF687070.0
aF686940.0
aF686810.0
aF686680.0
aF686540.0
aF686400.0
aF686260.0
aF686120.0
aF685970.0
aF685820.0
aF685670.0
aF685520.0
aF685360.0
aF685200.0
aF685030.0
aF684870.0
aF684690.0
aF684520.0
aF684340.0
aF684160.0
aF683980.0
aF683790.0
aF683600.0
aF683400.0
aF683200.0
aF682990.0
aF682790.0
aF682570.0
aF682350.0
aF682130.0
aF681900.0
aF681670.0
aF681430.0
aF681190.0
aF680940.0
aF680690.0
aF680430.0
aF680160.0
aF679890.0
aF679610.0
aF679320.0
aF679030.0
aF678730.0
aF678430.0
aF678110.0
aF677790.0
aF677460.0
aF677120.0
aF676780.0
aF676420.0
aF676060.0
aF675690.0
aF675300.0
aF674910.0
aF674510.0
aF674090.0
aF673670.0
aF673230.0
aF672780.0
aF672320.0
aF671850.0
aF671360.0
aF670860.0
aF670340.0
aF669810.0
aF669270.0
aF668700.0
aF668130.0
aF667530.0
aF666910.0
aF666280.0
aF665630.0
aF664950.0
aF664260.0
aF663540.0
aF662800.0
aF662040.0
aF661250.0
aF660430.0
aF659590.0
aF658710.0
aF657810.0
aF656880.0
aF655910.0
aF654910.0
aF653870.0
aF652790.0
aF651680.0
aF650520.0
aF649320.0
aF648070.0
aF646770.0
aF645420.0
aF644020.0
aF642570.0
aF641050.0
aF639470.0
aF637820.0
aF636100.0
aF634310.0
aF632450.0
aF630490.0
aF628460.0
aF626320.0
aF624090.0
aF621760.0
aF619320.0
aF616750.0
aF614070.0
aF611250.0
aF608290.0
aF605180.0
aF601910.0
aF598470.0
aF594850.0
aF591030.0
aF587010.0
aF582760.0
aF578290.0
aF573560.0
aF568560.0
aF563270.0
aF557680.0
aF551770.0
aF545500.0
aF538860.0
aF531820.0
aF524360.0
aF516440.0
aF508030.0
aF499100.0
aF489610.0
aF479520.0
aF468790.0
aF457360.0
aF445190.0
aF432210.0
aF418380.0
aF403630.0
aF387900.0
aF371120.0
aF353250.0
aF334230.0
aF314030.0
aF292630.0
aF270040.0
aF246320.0
aF221580.0
aF195980.0
aF169800.0
aF143440.0
aF117420.0
aI92389
aI69135
aI48493
aI31248
aI17979
aF8888.5
aF3782.8
aF427.41
aF23.782
aF91.58
aF64.876
aF42.325
aF19.24
aaaa.