(lp0
(lp1
F0.01
aF0.01003
aF0.01007
aF0.0101
aF0.01013
aF0.01017
aF0.0102
aF0.01024
aF0.01027
aF0.01031
aF0.01034
aF0.01038
aF0.01041
aF0.01045
aF0.01049
aF0.01052
aF0.01056
aF0.0106
aF0.01063
aF0.01067
aF0.01071
aF0.01075
aF0.01079
aF0.01082
aF0.01086
aF0.0109
aF0.01094
aF0.01098
aF0.01102
aF0.01106
aF0.0111
aF0.01114
aF0.01119
aF0.01123
aF0.01127
aF0.01131
aF0.01135
aF0.0114
aF0.01144
aF0.01148
aF0.01153
aF0.01157
aF0.01162
aF0.01166
aF0.01171
aF0.01175
aF0.0118
aF0.01184
aF0.01189
aF0.01194
aF0.01198
aF0.01203
aF0.01208
aF0.01213
aF0.01218
aF0.01223
aF0.01228
aF0.01233
aF0.01238
aF0.01243
aF0.01248
aF0.01253
aF0.01258
aF0.01264
aF0.01269
aF0.01274
aF0.0128
aF0.01285
aF0.01291
aF0.01296
aF0.01302
aF0.01307
aF0.01313
aF0.01319
aF0.01325
aF0.0133
aF0.01336
aF0.01342
aF0.01348
aF0.01354
aF0.0136
aF0.01366
aF0.01373
aF0.01379
aF0.01385
aF0.01392
aF0.01398
aF0.01405
aF0.01411
aF0.01418
aF0.01424
aF0.01431
aF0.01438
aF0.01445
aF0.01452
aF0.01459
aF0.01466
aF0.01473
aF0.0148
aF0.01488
aF0.01495
aF0.01502
aF0.0151
aF0.01518
aF0.01525
aF0.01533
aF0.01541
aF0.01549
aF0.01557
aF0.01565
aF0.01573
aF0.01581
aF0.01589
aF0.01598
aF0.01606
aF0.01615
aF0.01624
aF0.01632
aF0.01641
aF0.0165
aF0.01659
aF0.01668
aF0.01678
aF0.01687
aF0.01697
aF0.01706
aF0.01716
aF0.01726
aF0.01736
aF0.01746
aF0.01756
aF0.01766
aF0.01776
aF0.01787
aF0.01798
aF0.01808
aF0.01819
aF0.0183
aF0.01841
aF0.01853
aF0.01864
aF0.01876
aF0.01887
aF0.01899
aF0.01911
aF0.01923
aF0.01936
aF0.01948
aF0.01961
aF0.01974
aF0.01987
aF0.02
aF0.02013
aF0.02027
aF0.0204
aF0.02054
aF0.02068
aF0.02083
aF0.02097
aF0.02112
aF0.02127
aF0.02142
aF0.02157
aF0.02172
aF0.02188
aF0.02204
aF0.0222
aF0.02237
aF0.02254
aF0.0227
aF0.02288
aF0.02305
aF0.02323
aF0.02341
aF0.02359
aF0.02378
aF0.02397
aF0.02416
aF0.02435
aF0.02455
aF0.02475
aF0.02496
aF0.02516
aF0.02538
aF0.02559
aF0.02581
aF0.02603
aF0.02626
aF0.02649
aF0.02672
aF0.02696
aF0.0272
aF0.02745
aF0.0277
aF0.02796
aF0.02822
aF0.02849
aF0.02876
aF0.02903
aF0.02932
aF0.0296
aF0.0299
aF0.0302
aF0.0305
aF0.03081
aF0.03113
aF0.03145
aF0.03178
aF0.03212
aF0.03247
aF0.03282
aF0.03318
aF0.03355
aF0.03393
aF0.03431
aF0.03471
aF0.03511
aF0.03552
aF0.03595
aF0.03638
aF0.03682
aF0.03728
aF0.03774
aF0.03822
aF0.03871
aF0.03921
aF0.03973
aF0.04026
aF0.0408
aF0.04136
aF0.04194
aF0.04253
aF0.04313
aF0.04376
aF0.0444
aF0.04506
aF0.04575
aF0.04645
aF0.04718
aF0.04792
aF0.0487
aF0.0495
aF0.05032
aF0.05117
aF0.05205
aF0.05297
aF0.05391
aF0.05489
aF0.05591
aF0.05696
aF0.05806
aF0.0592
aF0.06038
aF0.06161
aF0.06289
aF0.06423
aF0.06563
aF0.06709
aF0.06861
aF0.0702
aF0.07188
aF0.07363
aF0.07547
aF0.0774
aF0.07944
aF0.08158
aF0.08385
aF0.08624
aF0.08878
aF0.09147
aF0.09432
aF0.09736
aF0.10061
aF0.10407
aF0.10779
aF0.11178
aF0.11607
aF0.12071
aF0.12574
aF0.1312
aF0.13716
aF0.14368
aF0.15086
aF0.15879
aF0.1676
aF0.17745
aF0.18852
aF0.20108
aF0.21542
aF0.23196
aF0.25126
aF0.27406
aF0.30141
aF0.33483
aF0.37657
aF0.43022
aF0.50168
aF0.60161
aF0.75126
aF1.0
aa(lp2
F0.0
aF45.0
aF90.0
aa(lp3
I1
aI1
aI1
aa(lp4
(lp5
(lp6
I42806
aI42948
aI43092
aI43236
aI43381
aI43527
aI43675
aI43823
aI43972
aI44122
aI44273
aI44426
aI44579
aI44734
aI44889
aI45046
aI45203
aI45362
aI45522
aI45683
aI45845
aI46009
aI46173
aI46339
aI46506
aI46674
aI46843
aI47014
aI47185
aI47358
aI47533
aI47708
aI47885
aI48064
aI48243
aI48424
aI48606
aI48790
aI48975
aI49161
aI49349
aI49539
aI49730
aI49922
aI50116
aI50311
aI50508
aI50706
aI50906
aI51107
aI51310
aI51515
aI51722
aI51930
aI52139
aI52351
aI52564
aI52779
aI52995
aI53214
aI53434
aI53656
aI53880
aI54106
aI54333
aI54563
aI54795
aI55028
aI55264
aI55501
aI55741
aI55983
aI56227
aI56472
aI56721
aI56971
aI57223
aI57478
aI57735
aI57995
aI58256
aI58520
aI58787
aI59056
aI59327
aI59601
aI59878
aI60157
aI60438
aI60723
aI61010
aI61299
aI61592
aI61887
aI62185
aI62487
aI62790
aI63097
aI63407
aI63720
aI64037
aI64356
aI64678
aI65004
aI65333
aI65666
aI66001
aI66341
aI66684
aI67030
aI67380
aI67734
aI68091
aI68452
aI68817
aI69186
aI69559
aI69936
aI70317
aI70702
aI71092
aI71486
aI71884
aI72287
aI72694
aI73106
aI73522
aI73944
aI74370
aI74801
aI75238
aI75679
aI76125
aI76577
aI77035
aI77497
aI77966
aI78440
aI78920
aI79405
aI79897
aI80395
aI80900
aI81410
aI81927
aI82451
aI82982
aI83519
aI84063
aI84615
aI85174
aI85740
aI86314
aI86896
aI87485
aI88083
aI88689
aI89303
aI89926
aI90557
aI91198
aI91848
aI92507
aI93175
aI93854
aI94542
aI95241
aI95950
aI96669
aI97400
aI98141
aI98895
aI99659
aF100440.0
aF101230.0
aF102030.0
aF102840.0
aF103670.0
aF104510.0
aF105360.0
aF106230.0
aF107120.0
aF108010.0
aF108930.0
aF109860.0
aF110800.0
aF111760.0
aF112740.0
aF113740.0
aF114750.0
aF115780.0
aF116830.0
aF117900.0
aF118990.0
aF120100.0
aF121240.0
aF122390.0
aF123560.0
aF124760.0
aF125980.0
aF127230.0
aF128500.0
aF129800.0
aF131120.0
aF132470.0
aF133850.0
aF135260.0
aF136700.0
aF138170.0
aF139670.0
aF141200.0
aF142770.0
aF144370.0
aF146020.0
aF147690.0
aF149410.0
aF151170.0
aF152970.0
aF154820.0
aF156710.0
aF158640.0
aF160630.0
aF162670.0
aF164760.0
aF166900.0
aF169100.0
aF171360.0
aF173690.0
aF176070.0
aF178530.0
aF181050.0
aF183650.0
aF186330.0
aF189080.0
aF191920.0
aF194840.0
aF197860.0
aF200970.0
aF204190.0
aF207510.0
aF210940.0
aF214490.0
aF218160.0
aF221960.0
aF225900.0
aF229980.0
aF234220.0
aF238620.0
aF243190.0
aF247940.0
aF252890.0
aF258050.0
aF263420.0
aF269030.0
aF274890.0
aF281020.0
aF287440.0
aF294160.0
aF301230.0
aF308650.0
aF316460.0
aF324700.0
aF333400.0
aF342590.0
aF352340.0
aF362690.0
aF373710.0
aF385460.0
aF398020.0
aF411490.0
aF425970.0
aF441590.0
aF458490.0
aF476850.0
aF496860.0
aF518750.0
aF542790.0
aF569270.0
aF598510.0
aF630790.0
aF666330.0
aF705110.0
aF746650.0
aF789600.0
aF831170.0
aF866540.0
aF888520.0
aF888240.0
aF857640.0
aF793280.0
aF699230.0
aF586160.0
aF467220.0
aF354020.0
aF254720.0
aF174240.0
aF109250.0
aI53753
aI29437
aI10525
aa(lp7
I30268
aI30369
aI30470
aI30572
aI30675
aI30778
aI30883
aI30987
aI31093
aI31199
aI31306
aI31414
aI31522
aI31631
aI31741
aI31852
aI31964
aI32076
aI32189
aI32303
aI32417
aI32533
aI32649
aI32766
aI32884
aI33003
aI33123
aI33244
aI33365
aI33487
aI33611
aI33735
aI33860
aI33986
aI34113
aI34241
aI34370
aI34500
aI34631
aI34762
aI34895
aI35029
aI35164
aI35300
aI35437
aI35575
aI35714
aI35855
aI35996
aI36138
aI36282
aI36427
aI36573
aI36720
aI36868
aI37018
aI37168
aI37320
aI37473
aI37628
aI37784
aI37941
aI38099
aI38259
aI38420
aI38582
aI38746
aI38911
aI39077
aI39245
aI39415
aI39586
aI39758
aI39932
aI40108
aI40285
aI40463
aI40643
aI40825
aI41008
aI41193
aI41380
aI41569
aI41759
aI41951
aI42144
aI42340
aI42537
aI42736
aI42937
aI43140
aI43345
aI43552
aI43761
aI43972
aI44185
aI44400
aI44617
aI44836
aI45057
aI45281
aI45507
aI45735
aI45965
aI46198
aI46433
aI46670
aI46910
aI47152
aI47397
aI47645
aI47895
aI48148
aI48403
aI48661
aI48922
aI49186
aI49452
aI49722
aI49994
aI50270
aI50548
aI50830
aI51114
aI51402
aI51694
aI51988
aI52286
aI52588
aI52892
aI53201
aI53513
aI53829
aI54148
aI54472
aI54799
aI55130
aI55465
aI55805
aI56148
aI56496
aI56848
aI57205
aI57566
aI57931
aI58302
aI58677
aI59057
aI59442
aI59832
aI60227
aI60627
aI61033
aI61444
aI61861
aI62284
aI62712
aI63147
aI63587
aI64034
aI64487
aI64946
aI65412
aI65885
aI66365
aI66851
aI67345
aI67847
aI68355
aI68872
aI69396
aI69929
aI70470
aI71019
aI71577
aI72144
aI72719
aI73305
aI73899
aI74504
aI75118
aI75743
aI76378
aI77024
aI77681
aI78349
aI79029
aI79721
aI80425
aI81142
aI81871
aI82614
aI83371
aI84142
aI84927
aI85727
aI86542
aI87373
aI88220
aI89084
aI89965
aI90864
aI91781
aI92716
aI93671
aI94646
aI95642
aI96659
aI97698
aI98759
aI99844
aF100950.0
aF102090.0
aF103250.0
aF104440.0
aF105650.0
aF106890.0
aF108170.0
aF109470.0
aF110810.0
aF112180.0
aF113580.0
aF115020.0
aF116500.0
aF118020.0
aF119570.0
aF121170.0
aF122820.0
aF124500.0
aF126240.0
aF128020.0
aF129860.0
aF131750.0
aF133700.0
aF135710.0
aF137770.0
aF139910.0
aF142110.0
aF144380.0
aF146730.0
aF149160.0
aF151660.0
aF154260.0
aF156950.0
aF159730.0
aF162620.0
aF165620.0
aF168730.0
aF171960.0
aF175320.0
aF178820.0
aF182470.0
aF186270.0
aF190230.0
aF194380.0
aF198710.0
aF203250.0
aF208010.0
aF213000.0
aF218250.0
aF223770.0
aF229600.0
aF235750.0
aF242250.0
aF249140.0
aF256460.0
aF264250.0
aF272560.0
aF281440.0
aF290970.0
aF301210.0
aF312250.0
aF324200.0
aF337180.0
aF351330.0
aF366810.0
aF383810.0
aF402540.0
aF423210.0
aF446030.0
aF471170.0
aF498590.0
aF527960.0
aF558330.0
aF587730.0
aF612740.0
aF628280.0
aF628080.0
aF606440.0
aF560940.0
aF494430.0
aF414480.0
aF330380.0
aF250330.0
aF180110.0
aF123210.0
aI77249
aI38009
aI20815
aF7441.9
aa(lp8
F0.00051307
aF0.00051478
aF0.00051649
aF0.00051822
aF0.00051996
aF0.00052172
aF0.00052348
aF0.00052526
aF0.00052704
aF0.00052884
aF0.00053066
aF0.00053248
aF0.00053432
aF0.00053617
aF0.00053803
aF0.00053991
aF0.0005418
aF0.0005437
aF0.00054562
aF0.00054755
aF0.00054949
aF0.00055145
aF0.00055342
aF0.0005554
aF0.0005574
aF0.00055942
aF0.00056145
aF0.00056349
aF0.00056555
aF0.00056762
aF0.00056971
aF0.00057182
aF0.00057394
aF0.00057607
aF0.00057822
aF0.00058039
aF0.00058257
aF0.00058478
aF0.00058699
aF0.00058923
aF0.00059148
aF0.00059375
aF0.00059603
aF0.00059834
aF0.00060066
aF0.000603
aF0.00060536
aF0.00060773
aF0.00061013
aF0.00061254
aF0.00061498
aF0.00061743
aF0.0006199
aF0.00062239
aF0.00062491
aF0.00062744
aF0.00062999
aF0.00063257
aF0.00063516
aF0.00063778
aF0.00064042
aF0.00064308
aF0.00064576
aF0.00064847
aF0.00065119
aF0.00065395
aF0.00065672
aF0.00065952
aF0.00066234
aF0.00066519
aF0.00066806
aF0.00067095
aF0.00067387
aF0.00067682
aF0.00067979
aF0.00068279
aF0.00068582
aF0.00068887
aF0.00069195
aF0.00069506
aF0.00069819
aF0.00070136
aF0.00070455
aF0.00070777
aF0.00071102
aF0.0007143
aF0.00071762
aF0.00072096
aF0.00072433
aF0.00072774
aF0.00073118
aF0.00073465
aF0.00073815
aF0.00074169
aF0.00074526
aF0.00074887
aF0.00075251
aF0.00075619
aF0.0007599
aF0.00076365
aF0.00076744
aF0.00077126
aF0.00077512
aF0.00077903
aF0.00078297
aF0.00078695
aF0.00079097
aF0.00079504
aF0.00079914
aF0.00080329
aF0.00080748
aF0.00081172
aF0.000816
aF0.00082032
aF0.0008247
aF0.00082912
aF0.00083358
aF0.0008381
aF0.00084266
aF0.00084728
aF0.00085194
aF0.00085666
aF0.00086143
aF0.00086625
aF0.00087113
aF0.00087606
aF0.00088105
aF0.0008861
aF0.0008912
aF0.00089637
aF0.00090159
aF0.00090688
aF0.00091222
aF0.00091763
aF0.00092311
aF0.00092865
aF0.00093426
aF0.00093994
aF0.00094568
aF0.0009515
aF0.00095739
aF0.00096335
aF0.00096939
aF0.00097551
aF0.0009817
aF0.00098797
aF0.00099432
aF0.0010008
aF0.0010073
aF0.0010139
aF0.0010206
aF0.0010273
aF0.0010342
aF0.0010412
aF0.0010482
aF0.0010554
aF0.0010626
aF0.00107
aF0.0010775
aF0.001085
aF0.0010927
aF0.0011005
aF0.0011084
aF0.0011164
aF0.0011245
aF0.0011327
aF0.0011411
aF0.0011496
aF0.0011582
aF0.0011669
aF0.0011758
aF0.0011848
aF0.001194
aF0.0012033
aF0.0012127
aF0.0012223
aF0.001232
aF0.0012419
aF0.001252
aF0.0012622
aF0.0012726
aF0.0012832
aF0.0012939
aF0.0013049
aF0.001316
aF0.0013273
aF0.0013388
aF0.0013505
aF0.0013624
aF0.0013745
aF0.0013869
aF0.0013994
aF0.0014122
aF0.0014253
aF0.0014386
aF0.0014521
aF0.0014659
aF0.0014799
aF0.0014943
aF0.0015089
aF0.0015238
aF0.001539
aF0.0015545
aF0.0015703
aF0.0015864
aF0.0016029
aF0.0016197
aF0.0016369
aF0.0016545
aF0.0016724
aF0.0016908
aF0.0017095
aF0.0017287
aF0.0017483
aF0.0017683
aF0.0017889
aF0.0018099
aF0.0018314
aF0.0018534
aF0.001876
aF0.0018991
aF0.0019228
aF0.0019471
aF0.0019721
aF0.0019977
aF0.002024
aF0.0020509
aF0.0020786
aF0.0021071
aF0.0021364
aF0.0021665
aF0.0021975
aF0.0022294
aF0.0022622
aF0.002296
aF0.0023309
aF0.0023668
aF0.0024039
aF0.0024422
aF0.0024817
aF0.0025226
aF0.0025648
aF0.0026085
aF0.0026537
aF0.0027005
aF0.0027491
aF0.0027995
aF0.0028517
aF0.002906
aF0.0029625
aF0.0030212
aF0.0030823
aF0.003146
aF0.0032125
aF0.0032819
aF0.0033545
aF0.0034304
aF0.0035099
aF0.0035933
aF0.0036809
aF0.0037731
aF0.0038701
aF0.0039725
aF0.0040806
aF0.0041951
aF0.0043164
aF0.0044454
aF0.0045827
aF0.0047292
aF0.004886
aF0.0050543
aF0.0052352
aF0.0054305
aF0.005642
aF0.0058718
aF0.0061223
aF0.0063964
aF0.0066974
aF0.0070287
aF0.0073941
aF0.0077969
aF0.0082395
aF0.0087214
aF0.0092368
aF0.0097707
aF0.010293
aF0.01075
aF0.011058
aF0.011091
aF0.010697
aF0.0097277
aF0.0081416
aF0.0061035
aF0.0041772
aF0.0047938
aF0.007973
aF0.0021662
aF0.0015529
aF0.00068139
aF0.00021293
aaa(lp9
(lp10
F0.0
aF0.0
aF0.0
aF0.0
aF0.0
aF0.0
aF0.0
aF0.0
aF0.0
aF0.0
aF0.0
aF0.0
aF0.0
aF0.0
aF0.0
aF0.0
aF0.0
aF0.0
aF0.0
aF0.0
aF0.0
aF0.0
aF0.0
aF0.0
aF0.0
aF0.0
aF0.0
aF0.0
aF0.0
aF0.0
aF0.0
aF0.0
aF0.0
aF0.0
aF0.0
aF0.0
aF0.0
aF0.0
aF0.0
aF0.0
aF0.0
aF0.0
aF0.0
aF0.0
aF0.0
aF0.0
aF0.0
aF0.0
aF0.0
aF0.0
aF0.0
aF0.0
aF0.0
aF0.0
aF0.0
aF0.0
aF0.0
aF0.0
aF0.0
aF0.0
aF0.0
aF0.0
aF0.0
aF0.0
aF0.0
aF0.0
aF0.0
aF0.0
aF0.0
aF0.0
aF0.0
aF0.0
aF0.0
aF0.0
aF0.0
aF0.0
aF0.0
aF0.0
aF0.0
aF0.0
aF0.0
aF0.0
aF0.0
aF0.0
aF0.0
aF0.0
aF0.0
aF0.0
aF0.0
aF0.0
aF0.0
aF0.0
aF0.0
aF0.0
aF0.0
aF0.0
aF0.0
aF0.0
aF0.0
aF0.0
aF0.0
aF0.0
aF0.0
aF0.0
aF0.0
aF0.0
aF0.0
aF0.0
aF0.0
aF0.0
aF0.0
aF0.0
aF0.0
aF0.0
aF0.0
aF0.0
aF0.0
aF0.0
aF0.0
aF0.0
aF0.0
aF0.0
aF0.0
aF0.0
aF0.0
aF0.0
aF0.0
aF0.0
aF0.0
aF0.0
aF0.0
aF0.0
aF0.0
aF0.0
aF0.0
aF0.0
aF0.0
aF0.0
aF0.0
aF0.0
aF0.0
aF0.0
aF0.0
aF0.0
aF0.0
aF0.0
aF0.0
aF0.0
aF0.0
aF0.0
aF0.0
aF0.0
aF0.0
aF0.0
aF0.0
aF0.0
aF0.0
aF0.0
aF0.0
aF0.0
aF0.0
aF0.0
aF0.0
aF0.0
aF0.0
aF0.0
aF0.0
aF0.0
aF0.0
aF0.0
aF0.0
aF0.0
aF0.0
aF0.0
aF0.0
aF0.0
aF0.0
aF0.0
aF0.0
aF0.0
aF0.0
aF0.0
aF0.0
aF0.0
aF0.0
aF0.0
aF0.0
aF0.0
aF0.0
aF0.0
aF0.0
aF0.0
aF0.0
aF0.0
aF0.0
aF0.0
aF0.0
aF0.0
aF0.0
aF0.0
aF0.0
aF0.0
aF0.0
aF0.0
aF0.0
aF0.0
aF0.0
aF0.0
aF0.0
aF0.0
aF0.0
aF0.0
aF0.0
aF0.0
aF0.0
aF0.0
aF0.0
aF0.0
aF0.0
aF0.0
aF0.0
aF0.0
aF0.0
aF0.0
aF0.0
aF0.0
aF0.0
aF0.0
aF0.0
aF0.0
aF0.0
aF0.0
aF0.0
aF0.0
aF0.0
aF0.0
aF0.0
aF0.0
aF0.0
aF0.0
aF0.0
aF0.0
aF0.0
aF0.0
aF0.0
aF0.0
aF0.0
aF0.0
aF0.0
aF0.0
aF0.0
aF0.0
aF0.0
aF0.0
aF0.0
aF0.0
aF0.0
aF0.0
aF0.0
aF0.0
aF0.0
aF0.0
aF0.0
aF0.0
aF0.0
aF0.0
aF0.0
aF0.0
aF0.0
aF0.0
aF0.0
aF0.0
aF0.0
aF0.0
aF0.0
aF0.0
aF0.0
aF0.0
aF0.0
aF0.0
aF0.0
aF0.0
aF0.0
aF0.0
aF0.0
aF0.0
aF0.0
aF0.0
aF0.0
aF0.0
aF0.0
aF0.0
aF0.0
aF0.0
aF0.0
aF0.0
aF0.0
aF0.0
aF0.0
aF0.0
aa(lp11
I30268
aI30369
aI30470
aI30572
aI30675
aI30778
aI30883
aI30987
aI31093
aI31199
aI31306
aI31414
aI31522
aI31631
aI31741
aI31852
aI31964
aI32076
aI32189
aI32303
aI32417
aI32533
aI32649
aI32766
aI32884
aI33003
aI33123
aI33244
aI33365
aI33487
aI33611
aI33735
aI33860
aI33986
aI34113
aI34241
aI34370
aI34500
aI34631
aI34762
aI34895
aI35029
aI35164
aI35300
aI35437
aI35575
aI35714
aI35855
aI35996
aI36138
aI36282
aI36427
aI36573
aI36720
aI36868
aI37018
aI37168
aI37320
aI37473
aI37628
aI37784
aI37941
aI38099
aI38259
aI38420
aI38582
aI38746
aI38911
aI39077
aI39245
aI39415
aI39586
aI39758
aI39932
aI40108
aI40285
aI40463
aI40643
aI40825
aI41008
aI41193
aI41380
aI41569
aI41759
aI41951
aI42144
aI42340
aI42537
aI42736
aI42937
aI43140
aI43345
aI43552
aI43761
aI43972
aI44185
aI44400
aI44617
aI44836
aI45057
aI45281
aI45507
aI45735
aI45965
aI46198
aI46433
aI46670
aI46910
aI47152
aI47397
aI47645
aI47895
aI48148
aI48403
aI48661
aI48922
aI49186
aI49452
aI49722
aI49994
aI50270
aI50548
aI50830
aI51114
aI51402
aI51694
aI51988
aI52286
aI52588
aI52892
aI53201
aI53513
aI53829
aI54148
aI54472
aI54799
aI55130
aI55465
aI55805
aI56148
aI56496
aI56848
aI57205
aI57566
aI57931
aI58302
aI58677
aI59057
aI59442
aI59832
aI60227
aI60627
aI61033
aI61444
aI61861
aI62284
aI62712
aI63147
aI63587
aI64034
aI64487
aI64946
aI65412
aI65885
aI66365
aI66851
aI67345
aI67847
aI68355
aI68872
aI69396
aI69929
aI70470
aI71019
aI71577
aI72144
aI72719
aI73305
aI73899
aI74504
aI75118
aI75743
aI76378
aI77024
aI77681
aI78349
aI79029
aI79721
aI80425
aI81142
aI81871
aI82614
aI83371
aI84142
aI84927
aI85727
aI86542
aI87373
aI88220
aI89084
aI89965
aI90864
aI91781
aI92716
aI93671
aI94646
aI95642
aI96659
aI97698
aI98759
aI99844
aF100950.0
aF102090.0
aF103250.0
aF104440.0
aF105650.0
aF106890.0
aF108170.0
aF109470.0
aF110810.0
aF112180.0
aF113580.0
aF115020.0
aF116500.0
aF118020.0
aF119570.0
aF121170.0
aF122820.0
aF124500.0
aF126240.0
aF128020.0
aF129860.0
aF131750.0
aF133700.0
aF135710.0
aF137770.0
aF139910.0
aF142110.0
aF144380.0
aF146730.0
aF149160.0
aF151660.0
aF154260.0
aF156950.0
aF159730.0
aF162620.0
aF165620.0
aF168730.0
aF171960.0
aF175320.0
aF178820.0
aF182470.0
aF186270.0
aF190230.0
aF194380.0
aF198710.0
aF203250.0
aF208010.0
aF213000.0
aF218250.0
aF223770.0
aF229600.0
aF235750.0
aF242250.0
aF249140.0
aF256460.0
aF264250.0
aF272560.0
aF281440.0
aF290970.0
aF301210.0
aF312250.0
aF324200.0
aF337180.0
aF351330.0
aF366810.0
aF383810.0
aF402540.0
aF423210.0
aF446030.0
aF471170.0
aF498590.0
aF527960.0
aF558330.0
aF587730.0
aF612740.0
aF628280.0
aF628080.0
aF606440.0
aF560940.0
aF494430.0
aF414480.0
aF330380.0
aF250330.0
aF180110.0
aF123210.0
aI77249
aI38009
aI20815
aF7441.9
aa(lp12
I42806
aI42948
aI43092
aI43236
aI43381
aI43527
aI43675
aI43823
aI43972
aI44122
aI44273
aI44426
aI44579
aI44734
aI44889
aI45046
aI45203
aI45362
aI45522
aI45683
aI45845
aI46009
aI46173
aI46339
aI46506
aI46674
aI46843
aI47014
aI47185
aI47358
aI47533
aI47708
aI47885
aI48064
aI48243
aI48424
aI48606
aI48790
aI48975
aI49161
aI49349
aI49539
aI49730
aI49922
aI50116
aI50311
aI50508
aI50706
aI50906
aI51107
aI51310
aI51515
aI51722
aI51930
aI52139
aI52351
aI52564
aI52779
aI52995
aI53214
aI53434
aI53656
aI53880
aI54106
aI54333
aI54563
aI54795
aI55028
aI55264
aI55501
aI55741
aI55983
aI56227
aI56472
aI56721
aI56971
aI57223
aI57478
aI57735
aI57995
aI58256
aI58520
aI58787
aI59056
aI59327
aI59601
aI59878
aI60157
aI60438
aI60723
aI61010
aI61299
aI61592
aI61887
aI62185
aI62487
aI62790
aI63097
aI63407
aI63720
aI64037
aI64356
aI64678
aI65004
aI65333
aI65666
aI66001
aI66341
aI66684
aI67030
aI67380
aI67734
aI68091
aI68452
aI68817
aI69186
aI69559
aI69936
aI70317
aI70702
aI71092
aI71486
aI71884
aI72287
aI72694
aI73106
aI73523
aI73944
aI74370
aI74801
aI75238
aI75679
aI76125
aI76577
aI77035
aI77497
aI77966
aI78440
aI78920
aI79405
aI79897
aI80395
aI80900
aI81410
aI81927
aI82451
aI82982
aI83519
aI84063
aI84615
aI85174
aI85740
aI86314
aI86896
aI87485
aI88083
aI88689
aI89303
aI89926
aI90557
aI91198
aI91848
aI92507
aI93175
aI93854
aI94542
aI95241
aI95950
aI96669
aI97400
aI98141
aI98894
aI99659
aF100440.0
aF101230.0
aF102030.0
aF102840.0
aF103670.0
aF104510.0
aF105360.0
aF106230.0
aF107120.0
aF108010.0
aF108930.0
aF109860.0
aF110800.0
aF111760.0
aF112740.0
aF113740.0
aF114750.0
aF115780.0
aF116830.0
aF117900.0
aF118990.0
aF120100.0
aF121240.0
aF122390.0
aF123560.0
aF124760.0
aF125980.0
aF127230.0
aF128500.0
aF129800.0
aF131120.0
aF132470.0
aF133850.0
aF135260.0
aF136700.0
aF138170.0
aF139670.0
aF141200.0
aF142770.0
aF144370.0
aF146020.0
aF147690.0
aF149410.0
aF151170.0
aF152970.0
aF154820.0
aF156710.0
aF158640.0
aF160630.0
aF162670.0
aF164760.0
aF166900.0
aF169100.0
aF171360.0
aF173690.0
aF176070.0
aF178530.0
aF181050.0
aF183650.0
aF186330.0
aF189080.0
aF191920.0
aF194840.0
aF197860.0
aF200970.0
aF204190.0
aF207510.0
aF210940.0
aF214490.0
aF218160.0
aF221960.0
aF225900.0
aF229980.0
aF234220.0
aF238620.0
aF243190.0
aF247940.0
aF252890.0
aF258050.0
aF263420.0
aF269030.0
aF274890.0
aF281020.0
aF287440.0
aF294160.0
aF301230.0
aF308650.0
aF316460.0
aF324700.0
aF333400.0
aF342590.0
aF352340.0
aF362690.0
aF373710.0
aF385460.0
aF398020.0
aF411490.0
aF425970.0
aF441590.0
aF458490.0
aF476850.0
aF496860.0
aF518750.0
aF542790.0
aF569270.0
aF598510.0
aF630790.0
aF666330.0
aF705110.0
aF746650.0
aF789600.0
aF831170.0
aF866540.0
aF888520.0
aF888240.0
aF857640.0
aF793280.0
aF699230.0
aF586160.0
aF467220.0
aF354020.0
aF254720.0
aF174240.0
aF109250.0
aI53753
aI29437
aI10524
aaa(lp13
(lp14
F694790.0
aF694770.0
aF694750.0
aF694730.0
aF694710.0
aF694690.0
aF694670.0
aF694650.0
aF694630.0
aF694610.0
aF694590.0
aF694560.0
aF694540.0
aF694520.0
aF694500.0
aF694480.0
aF694450.0
aF694430.0
aF694410.0
aF694380.0
aF694360.0
aF694340.0
aF694310.0
aF694290.0
aF694260.0
aF694240.0
aF694210.0
aF694190.0
aF694160.0
aF694140.0
aF694110.0
aF694080.0
aF694060.0
aF694030.0
aF694000.0
aF693970.0
aF693950.0
aF693920.0
aF693890.0
aF693860.0
aF693830.0
aF693800.0
aF693770.0
aF693740.0
aF693710.0
aF693680.0
aF693650.0
aF693610.0
aF693580.0
aF693550.0
aF693520.0
aF693480.0
aF693450.0
aF693420.0
aF693380.0
aF693350.0
aF693310.0
aF693270.0
aF693240.0
aF693200.0
aF693170.0
aF693130.0
aF693090.0
aF693050.0
aF693010.0
aF692970.0
aF692930.0
aF692890.0
aF692850.0
aF692810.0
aF692770.0
aF692720.0
aF692680.0
aF692640.0
aF692590.0
aF692550.0
aF692500.0
aF692460.0
aF692410.0
aF692360.0
aF692320.0
aF692270.0
aF692220.0
aF692170.0
aF692120.0
aF692070.0
aF692010.0
aF691960.0
aF691910.0
aF691860.0
aF691800.0
aF691740.0
aF691690.0
aF691630.0
aF691570.0
aF691510.0
aF691450.0
aF691390.0
aF691330.0
aF691270.0
aF691210.0
aF691140.0
aF691080.0
aF691010.0
aF690950.0
aF690880.0
aF690810.0
aF690740.0
aF690670.0
aF690590.0
aF690520.0
aF690450.0
aF690370.0
aF690290.0
aF690220.0
aF690140.0
aF690060.0
aF689970.0
aF689890.0
aF689810.0
aF689720.0
aF689630.0
aF689550.0
aF689460.0
aF689360.0
aF689270.0
aF689180.0
aF689080.0
aF688980.0
aF688880.0
aF688780.0
aF688680.0
aF688570.0
aF688460.0
aF688360.0
aF688250.0
aF688130.0
aF688020.0
aF687900.0
aF687780.0
aF687660.0
aF687540.0
aF687410.0
aF687290.0
aF687160.0
aF687020.0
aF686890.0
aF686750.0
aF686610.0
aF686470.0
aF686320.0
aF686170.0
aF686020.0
aF685870.0
aF685710.0
aF685550.0
aF685380.0
aF685220.0
aF685050.0
aF684870.0
aF684690.0
aF684510.0
aF684330.0
aF684140.0
aF683940.0
aF683750.0
aF683540.0
aF683340.0
aF683130.0
aF682910.0
aF682690.0
aF682460.0
aF682230.0
aF682000.0
aF681760.0
aF681510.0
aF681260.0
aF681000.0
aF680730.0
aF680460.0
aF680180.0
aF679900.0
aF679610.0
aF679310.0
aF679000.0
aF678690.0
aF678370.0
aF678040.0
aF677700.0
aF677350.0
aF676990.0
aF676630.0
aF676250.0
aF675870.0
aF675470.0
aF675060.0
aF674640.0
aF674210.0
aF673770.0
aF673310.0
aF672850.0
aF672360.0
aF671870.0
aF671360.0
aF670830.0
aF670290.0
aF669730.0
aF669150.0
aF668560.0
aF667940.0
aF667310.0
aF666660.0
aF665980.0
aF665280.0
aF664560.0
aF663820.0
aF663050.0
aF662250.0
aF661430.0
aF660580.0
aF659690.0
aF658780.0
aF657830.0
aF656840.0
aF655820.0
aF654760.0
aF653660.0
aF652510.0
aF651320.0
aF650090.0
aF648800.0
aF647460.0
aF646060.0
aF644610.0
aF643090.0
aF641510.0
aF639850.0
aF638120.0
aF636320.0
aF634430.0
aF632450.0
aF630380.0
aF628210.0
aF625930.0
aF623540.0
aF621030.0
aF618390.0
aF615610.0
aF612680.0
aF609590.0
aF606340.0
aF602900.0
aF599260.0
aF595420.0
aF591340.0
aF587030.0
aF582440.0
aF577570.0
aF572390.0
aF566870.0
aF560990.0
aF554710.0
aF548000.0
aF540820.0
aF533120.0
aF524870.0
aF516000.0
aF506460.0
aF496190.0
aF485120.0
aF473180.0
aF460280.0
aF446340.0
aF431270.0
aF414970.0
aF397350.0
aF378330.0
aF357830.0
aF335810.0
aF312250.0
aF287220.0
aF260830.0
aF233300.0
aF204990.0
aF176320.0
aF147850.0
aF120190.0
aI94007
aI70027
aI48966
aI31494
aI18103
aF8944.8
aF3805.1
aF430.2
aF24.006
aF92.246
aF65.383
aF42.676
aF19.402
aa(lp15
F694790.0
aF694770.0
aF694750.0
aF694730.0
aF694710.0
aF694690.0
aF694670.0
aF694650.0
aF694630.0
aF694610.0
aF694590.0
aF694560.0
aF694540.0
aF694520.0
aF694500.0
aF694480.0
aF694450.0
aF694430.0
aF694410.0
aF694380.0
aF694360.0
aF694340.0
aF694310.0
aF694290.0
aF694260.0
aF694240.0
aF694210.0
aF694190.0
aF694160.0
aF694140.0
aF694110.0
aF694080.0
aF694060.0
aF694030.0
aF694000.0
aF693970.0
aF693950.0
aF693920.0
aF693890.0
aF693860.0
aF693830.0
aF693800.0
aF693770.0
aF693740.0
aF693710.0
aF693680.0
aF693650.0
aF693610.0
aF693580.0
aF693550.0
aF693520.0
aF693480.0
aF693450.0
aF693420.0
aF693380.0
aF693350.0
aF693310.0
aF693270.0
aF693240.0
aF693200.0
aF693170.0
aF693130.0
aF693090.0
aF693050.0
aF693010.0
aF692970.0
aF692930.0
aF692890.0
aF692850.0
aF692810.0
aF692770.0
aF692720.0
aF692680.0
aF692640.0
aF692590.0
aF692550.0
aF692500.0
aF692460.0
aF692410.0
aF692360.0
aF692320.0
aF692270.0
aF692220.0
aF692170.0
aF692120.0
aF692070.0
aF692020.0
aF691960.0
aF691910.0
aF691860.0
aF691800.0
aF691740.0
aF691690.0
aF691630.0
aF691570.0
aF691510.0
aF691450.0
aF691390.0
aF691330.0
aF691270.0
aF691210.0
aF691140.0
aF691080.0
aF691010.0
aF690950.0
aF690880.0
aF690810.0
aF690740.0
aF690670.0
aF690590.0
aF690520.0
aF690450.0
aF690370.0
aF690290.0
aF690220.0
aF690140.0
aF690060.0
aF689970.0
aF689890.0
aF689810.0
aF689720.0
aF689630.0
aF689550.0
aF689460.0
aF689360.0
aF689270.0
aF689180.0
aF689080.0
aF688980.0
aF688880.0
aF688780.0
aF688680.0
aF688570.0
aF688470.0
aF688360.0
aF688250.0
aF688130.0
aF688020.0
aF687900.0
aF687780.0
aF687660.0
aF687540.0
aF687410.0
aF687290.0
aF687160.0
aF687020.0
aF686890.0
aF686750.0
aF686610.0
aF686470.0
aF686320.0
aF686170.0
aF686020.0
aF685870.0
aF685710.0
aF685550.0
aF685380.0
aF685220.0
aF685050.0
aF684870.0
aF684690.0
aF684510.0
aF684330.0
aF684140.0
aF683940.0
aF683750.0
aF683540.0
aF683340.0
aF683130.0
aF682910.0
aF682690.0
aF682460.0
aF682230.0
aF682000.0
aF681760.0
aF681510.0
aF681260.0
aF681000.0
aF680730.0
aF680460.0
aF680180.0
aF679900.0
aF679610.0
aF679310.0
aF679000.0
aF678690.0
aF678370.0
aF678040.0
aF677700.0
aF677350.0
aF677000.0
aF676630.0
aF676250.0
aF675870.0
aF675470.0
aF675060.0
aF674640.0
aF674210.0
aF673770.0
aF673310.0
aF672850.0
aF672360.0
aF671870.0
aF671360.0
aF670830.0
aF670290.0
aF669730.0
aF669150.0
aF668560.0
aF667940.0
aF667310.0
aF666660.0
aF665980.0
aF665280.0
aF664560.0
aF663820.0
aF663050.0
aF662250.0
aF661430.0
aF660580.0
aF659690.0
aF658780.0
aF657830.0
aF656840.0
aF655820.0
aF654760.0
aF653660.0
aF652510.0
aF651320.0
aF650090.0
aF648800.0
aF647460.0
aF646060.0
aF644610.0
aF643090.0
aF641510.0
aF639850.0
aF638120.0
aF636320.0
aF634430.0
aF632450.0
aF630380.0
aF628210.0
aF625930.0
aF623540.0
aF621030.0
aF618390.0
aF615610.0
aF612680.0
aF609590.0
aF606340.0
aF602900.0
aF599260.0
aF595420.0
aF591340.0
aF587030.0
aF582440.0
aF577570.0
aF572390.0
aF566870.0
aF560990.0
aF554710.0
aF548000.0
aF540820.0
aF533120.0
aF524870.0
aF516000.0
aF506460.0
aF496190.0
aF485120.0
aF473180.0
aF460280.0
aF446340.0
aF431270.0
aF414970.0
aF397350.0
aF378330.0
aF357830.0
aF335810.0
aF312250.0
aF287220.0
aF260830.0
aF233300.0
aF204990.0
aF176320.0
aF147850.0
aF120190.0
aI94007
aI70027
aI48966
aI31494
aI18103
aF8944.8
aF3805.1
aF430.18
aF24.054
aF92.237
aF65.382
aF42.658
aF19.405
aa(lp16
F694790.0
aF694770.0
aF694750.0
aF694730.0
aF694710.0
aF694690.0
aF694670.0
aF694650.0
aF694630.0
aF694610.0
aF694590.0
aF694560.0
aF694540.0
aF694520.0
aF694500.0
aF694480.0
aF694450.0
aF694430.0
aF694410.0
aF694380.0
aF694360.0
aF694340.0
aF694310.0
aF694290.0
aF694260.0
aF694240.0
aF694210.0
aF694190.0
aF694160.0
aF694140.0
aF694110.0
aF694080.0
aF694060.0
aF694030.0
aF694000.0
aF693970.0
aF693940.0
aF693920.0
aF693890.0
aF693860.0
aF693830.0
aF693800.0
aF693770.0
aF693740.0
aF693710.0
aF693680.0
aF693650.0
aF693610.0
aF693580.0
aF693550.0
aF693520.0
aF693480.0
aF693450.0
aF693420.0
aF693380.0
aF693350.0
aF693310.0
aF693270.0
aF693240.0
aF693200.0
aF693160.0
aF693130.0
aF693090.0
aF693050.0
aF693010.0
aF692970.0
aF692930.0
aF692890.0
aF692850.0
aF692810.0
aF692770.0
aF692720.0
aF692680.0
aF692640.0
aF692590.0
aF692550.0
aF692500.0
aF692460.0
aF692410.0
aF692360.0
aF692320.0
aF692270.0
aF692220.0
aF692170.0
aF692120.0
aF692070.0
aF692010.0
aF691960.0
aF691910.0
aF691860.0
aF691800.0
aF691740.0
aF691690.0
aF691630.0
aF691570.0
aF691510.0
aF691450.0
aF691390.0
aF691330.0
aF691270.0
aF691210.0
aF691140.0
aF691080.0
aF691010.0
aF690950.0
aF690880.0
aF690810.0
aF690740.0
aF690670.0
aF690590.0
aF690520.0
aF690450.0
aF690370.0
aF690290.0
aF690220.0
aF690140.0
aF690060.0
aF689970.0
aF689890.0
aF689810.0
aF689720.0
aF689630.0
aF689550.0
aF689460.0
aF689360.0
aF689270.0
aF689180.0
aF689080.0
aF688980.0
aF688880.0
aF688780.0
aF688680.0
aF688570.0
aF688470.0
aF688360.0
aF688250.0
aF688130.0
aF688020.0
aF687900.0
aF687780.0
aF687660.0
aF687540.0
aF687410.0
aF687290.0
aF687160.0
aF687020.0
aF686890.0
aF686750.0
aF686610.0
aF686470.0
aF686320.0
aF686170.0
aF686020.0
aF685870.0
aF685710.0
aF685550.0
aF685380.0
aF685220.0
aF685050.0
aF684870.0
aF684690.0
aF684510.0
aF684330.0
aF684140.0
aF683940.0
aF683750.0
aF683540.0
aF683340.0
aF683130.0
aF682910.0
aF682690.0
aF682460.0
aF682230.0
aF682000.0
aF681760.0
aF681510.0
aF681260.0
aF681000.0
aF680730.0
aF680460.0
aF680180.0
aF679900.0
aF679610.0
aF679310.0
aF679000.0
aF678690.0
aF678370.0
aF678040.0
aF677700.0
aF677350.0
aF676990.0
aF676630.0
aF676250.0
aF675870.0
aF675470.0
aF675060.0
aF674640.0
aF674210.0
aF673770.0
aF673310.0
aF672850.0
aF672360.0
aF671870.0
aF671360.0
aF670830.0
aF670290.0
aF669730.0
aF669150.0
aF668560.0
aF667940.0
aF667310.0
aF666660.0
aF665980.0
aF665280.0
aF664560.0
aF663820.0
aF663050.0
aF662250.0
aF661430.0
aF660580.0
aF659690.0
aF658780.0
aF657830.0
aF656840.0
aF655820.0
aF654760.0
aF653660.0
aF652510.0
aF651320.0
aF650090.0
aF648800.0
aF647460.0
aF646060.0
aF644610.0
aF643090.0
aF641510.0
aF639850.0
aF638120.0
aF636320.0
aF634430.0
aF632450.0
aF630380.0
aF628210.0
aF625930.0
aF623540.0
aF621030.0
aF618390.0
aF615610.0
aF612680.0
aF609590.0
aF606340.0
aF602900.0
aF599260.0
aF595420.0
aF591340.0
aF587030.0
aF582440.0
aF577570.0
aF572390.0
aF566870.0
aF560990.0
aF554710.0
aF548000.0
aF540820.0
aF533120.0
aF524870.0
aF516000.0
aF506460.0
aF496190.0
aF485120.0
aF473180.0
aF460280.0
aF446340.0
aF431270.0
aF414970.0
aF397350.0
aF378330.0
aF357830.0
aF335810.0
aF312250.0
aF287220.0
aF260830.0
aF233300.0
aF204990.0
aF176320.0
aF147850.0
aF120190.0
aI94007
aI70027
aI48966
aI31494
aI18103
aF8944.7
aF3805.1
aF430.16
aF24.05
aF92.264
aF65.384
aF42.676
aF19.406
aaaa.